
========================================================================

** ELF Header Information

    File Name: hello_test.axf

    Machine class: ELFCLASS32 (32-bit)
    Data encoding: ELFDATA2LSB (Little endian)
    Header version: EV_CURRENT (Current version)
    Operating System ABI: none
    ABI Version: 0
    File Type: ET_EXEC (Executable) (2)
    Machine: EM_ARM (ARM)

    Image Entry point: 0x000001c5
    Flags: EF_ARM_HASENTRY (0x05000002)

    ARM ELF revision: 5 (ABI version 2)

    Built with
    ARM C/C++ Compiler, 4.1 [Build 644]
    ARM Assembler, 4.1 [Build 644]
    ARM Linker, 4.1 [Build 644] 

    Header size: 52 bytes (0x34)
    Program header entry size: 32 bytes (0x20)
    Section header entry size: 40 bytes (0x28)

    Program header entries: 1
    Section header entries: 16

    Program header offset: 34176 (0x00008580)
    Section header offset: 34208 (0x000085a0)

    Section header string table index: 15

========================================================================

** Program header #0 (PT_LOAD) [PF_X + PF_W + PF_R + PF_ARM_ENTRY]
    Size : 7728 bytes (6604 bytes in file)
    Virtual address: 0x00000000 (Alignment 8)


========================================================================

** Section #1 'ER_RO' (SHT_PROGBITS) [SHF_ALLOC + SHF_EXECINSTR]
    Size   : 6600 bytes (alignment 4)
    Address: 0x00000000

    $d.realdata
    RESET
    __Vectors
        0x00000000:    20000468    h..     DCD    536872040
        0x00000004:    000001c5    ....    DCD    453
        0x00000008:    000001cd    ....    DCD    461
        0x0000000c:    000001cf    ....    DCD    463
        0x00000010:    00000000    ....    DCD    0
        0x00000014:    00000000    ....    DCD    0
        0x00000018:    00000000    ....    DCD    0
        0x0000001c:    00000000    ....    DCD    0
        0x00000020:    00000000    ....    DCD    0
        0x00000024:    00000000    ....    DCD    0
        0x00000028:    00000000    ....    DCD    0
        0x0000002c:    000001d1    ....    DCD    465
        0x00000030:    00000000    ....    DCD    0
        0x00000034:    00000000    ....    DCD    0
        0x00000038:    000001d3    ....    DCD    467
        0x0000003c:    000001d5    ....    DCD    469
        0x00000040:    000001d7    ....    DCD    471
        0x00000044:    000001d7    ....    DCD    471
        0x00000048:    000001d7    ....    DCD    471
        0x0000004c:    000001d7    ....    DCD    471
        0x00000050:    000001d7    ....    DCD    471
        0x00000054:    000001d7    ....    DCD    471
        0x00000058:    000001d7    ....    DCD    471
        0x0000005c:    000001d7    ....    DCD    471
        0x00000060:    000001d7    ....    DCD    471
        0x00000064:    000001d7    ....    DCD    471
        0x00000068:    000001d7    ....    DCD    471
        0x0000006c:    000001d7    ....    DCD    471
        0x00000070:    000001d7    ....    DCD    471
        0x00000074:    000001d7    ....    DCD    471
        0x00000078:    000001d7    ....    DCD    471
        0x0000007c:    000001d7    ....    DCD    471
        0x00000080:    000001d7    ....    DCD    471
        0x00000084:    000001d7    ....    DCD    471
        0x00000088:    000001d7    ....    DCD    471
        0x0000008c:    000001d7    ....    DCD    471
        0x00000090:    000001d7    ....    DCD    471
        0x00000094:    000001d7    ....    DCD    471
        0x00000098:    000001d7    ....    DCD    471
        0x0000009c:    000001d7    ....    DCD    471
        0x000000a0:    000001d7    ....    DCD    471
        0x000000a4:    000001d7    ....    DCD    471
        0x000000a8:    000001d7    ....    DCD    471
        0x000000ac:    000001d7    ....    DCD    471
        0x000000b0:    000001d7    ....    DCD    471
        0x000000b4:    000001d7    ....    DCD    471
        0x000000b8:    000001d7    ....    DCD    471
        0x000000bc:    000001d7    ....    DCD    471
    $t
    !!!main
    __Vectors_End
    __main
        0x000000c0:    f000f802    ....    BL       __scatterload ; 0xc8
        0x000000c4:    f000f86e    ..n.    BL       __rt_entry ; 0x1a4
    !!!scatter
    __scatterload
    __scatterload_rt2
    __scatterload_rt2_thumb_only
        0x000000c8:    a00c        ..      ADR      r0,{pc}+0x34 ; 0xfc
        0x000000ca:    c830        0.      LDM      r0!,{r4,r5}
        0x000000cc:    3808        .8      SUBS     r0,r0,#8
        0x000000ce:    1824        $.      ADDS     r4,r4,r0
        0x000000d0:    182d        -.      ADDS     r5,r5,r0
        0x000000d2:    46a2        .F      MOV      r10,r4
        0x000000d4:    1e67        g.      SUBS     r7,r4,#1
        0x000000d6:    46ab        .F      MOV      r11,r5
    __scatterload_null
        0x000000d8:    4654        TF      MOV      r4,r10
        0x000000da:    465d        ]F      MOV      r5,r11
        0x000000dc:    42ac        .B      CMP      r4,r5
        0x000000de:    d101        ..      BNE      0xe4 ; __scatterload_null + 12
        0x000000e0:    f000f860    ..`.    BL       __rt_entry ; 0x1a4
        0x000000e4:    467e        ~F      MOV      r6,pc
        0x000000e6:    3e0f        .>      SUBS     r6,r6,#0xf
        0x000000e8:    cc0f        ..      LDM      r4!,{r0-r3}
        0x000000ea:    46b6        .F      MOV      lr,r6
        0x000000ec:    2601        .&      MOVS     r6,#1
        0x000000ee:    4233        3B      TST      r3,r6
        0x000000f0:    d000        ..      BEQ      0xf4 ; __scatterload_null + 28
        0x000000f2:    1afb        ..      SUBS     r3,r7,r3
        0x000000f4:    46a2        .F      MOV      r10,r4
        0x000000f6:    46ab        .F      MOV      r11,r5
        0x000000f8:    4333        3C      ORRS     r3,r3,r6
        0x000000fa:    4718        .G      BX       r3
    $d
        0x000000fc:    00001890    ....    DCD    6288
        0x00000100:    000018b0    ....    DCD    6320
    $t
    !!handler_copy
    __scatterload_copy
        0x00000104:    3a10        .:      SUBS     r2,r2,#0x10
        0x00000106:    d302        ..      BCC      0x10e ; __scatterload_copy + 10
        0x00000108:    c878        x.      LDM      r0!,{r3-r6}
        0x0000010a:    c178        x.      STM      r1!,{r3-r6}
        0x0000010c:    d8fa        ..      BHI      __scatterload_copy ; 0x104
        0x0000010e:    0752        R.      LSLS     r2,r2,#29
        0x00000110:    d301        ..      BCC      0x116 ; __scatterload_copy + 18
        0x00000112:    c830        0.      LDM      r0!,{r4,r5}
        0x00000114:    c130        0.      STM      r1!,{r4,r5}
        0x00000116:    d501        ..      BPL      0x11c ; __scatterload_copy + 24
        0x00000118:    6804        .h      LDR      r4,[r0,#0]
        0x0000011a:    600c        .`      STR      r4,[r1,#0]
        0x0000011c:    4770        pG      BX       lr
        0x0000011e:    0000        ..      MOVS     r0,r0
    !!handler_zi
    __scatterload_zeroinit
        0x00000120:    2300        .#      MOVS     r3,#0
        0x00000122:    2400        .$      MOVS     r4,#0
        0x00000124:    2500        .%      MOVS     r5,#0
        0x00000126:    2600        .&      MOVS     r6,#0
        0x00000128:    3a10        .:      SUBS     r2,r2,#0x10
        0x0000012a:    d301        ..      BCC      0x130 ; __scatterload_zeroinit + 16
        0x0000012c:    c178        x.      STM      r1!,{r3-r6}
        0x0000012e:    d8fb        ..      BHI      0x128 ; __scatterload_zeroinit + 8
        0x00000130:    0752        R.      LSLS     r2,r2,#29
        0x00000132:    d300        ..      BCC      0x136 ; __scatterload_zeroinit + 22
        0x00000134:    c130        0.      STM      r1!,{r4,r5}
        0x00000136:    d500        ..      BPL      0x13a ; __scatterload_zeroinit + 26
        0x00000138:    600b        .`      STR      r3,[r1,#0]
        0x0000013a:    4770        pG      BX       lr
    .ARM.Collect$$_printf_percent$$00000000
    _printf_percent
        0x0000013c:    b510        ..      PUSH     {r4,lr}
    .ARM.Collect$$_printf_percent$$00000002
    _printf_p
        0x0000013e:    2970        p)      CMP      r1,#0x70
        0x00000140:    d102        ..      BNE      _printf_f ; 0x148
        0x00000142:    f000fb1c    ....    BL       _printf_hex_ptr ; 0x77e
        0x00000146:    bd10        ..      POP      {r4,pc}
    .ARM.Collect$$_printf_percent$$00000003
    _printf_f
        0x00000148:    2966        f)      CMP      r1,#0x66
        0x0000014a:    d102        ..      BNE      _printf_e ; 0x152
        0x0000014c:    f001fbb8    ....    BL       _printf_fp_dec ; 0x18c0
        0x00000150:    bd10        ..      POP      {r4,pc}
    .ARM.Collect$$_printf_percent$$00000004
    _printf_e
        0x00000152:    2965        e)      CMP      r1,#0x65
        0x00000154:    d102        ..      BNE      _printf_d ; 0x15c
        0x00000156:    f001fbb3    ....    BL       _printf_fp_dec ; 0x18c0
        0x0000015a:    bd10        ..      POP      {r4,pc}
    .ARM.Collect$$_printf_percent$$00000009
    _printf_d
        0x0000015c:    2964        d)      CMP      r1,#0x64
        0x0000015e:    d102        ..      BNE      _printf_x ; 0x166
        0x00000160:    f000faa2    ....    BL       _printf_int_dec ; 0x6a8
        0x00000164:    bd10        ..      POP      {r4,pc}
    .ARM.Collect$$_printf_percent$$0000000C
    _printf_x
        0x00000166:    2978        x)      CMP      r1,#0x78
        0x00000168:    d102        ..      BNE      _printf_c ; 0x170
        0x0000016a:    f000fafb    ....    BL       _printf_int_hex ; 0x764
        0x0000016e:    bd10        ..      POP      {r4,pc}
    .ARM.Collect$$_printf_percent$$00000013
    _printf_c
        0x00000170:    2963        c)      CMP      r1,#0x63
        0x00000172:    d102        ..      BNE      _printf_s ; 0x17a
        0x00000174:    f000ff6e    ..n.    BL       _printf_char ; 0x1054
        0x00000178:    bd10        ..      POP      {r4,pc}
    .ARM.Collect$$_printf_percent$$00000014
    _printf_s
        0x0000017a:    2973        s)      CMP      r1,#0x73
        0x0000017c:    d102        ..      BNE      _printf_percent_end ; 0x184
        0x0000017e:    f000ff71    ..q.    BL       _printf_string ; 0x1064
        0x00000182:    bd10        ..      POP      {r4,pc}
    .ARM.Collect$$_printf_percent$$00000017
    _printf_percent_end
        0x00000184:    2000        .       MOVS     r0,#0
        0x00000186:    bd10        ..      POP      {r4,pc}
    .ARM.Collect$$libinit$$00000000
    __rt_lib_init
        0x00000188:    b51f        ..      PUSH     {r0-r4,lr}
        0x0000018a:    46c0        .F      MOV      r8,r8
        0x0000018c:    46c0        .F      MOV      r8,r8
    .ARM.Collect$$libinit$$00000006
    .ARM.Collect$$libinit$$00000008
    .ARM.Collect$$libinit$$0000000A
    .ARM.Collect$$libinit$$0000000B
    __rt_lib_init_heap_1
    __rt_lib_init_lc_common
    __rt_lib_init_rand_1
    __rt_lib_init_user_alloc_1
        0x0000018e:    f000ff95    ....    BL       __rt_locale ; 0x10bc
        0x00000192:    0004        ..      MOVS     r4,r0
    .ARM.Collect$$libinit$$0000000D
    .ARM.Collect$$libinit$$0000000F
    .ARM.Collect$$libinit$$00000011
    .ARM.Collect$$libinit$$00000012
    __rt_lib_init_lc_collate_1
    __rt_lib_init_lc_ctype_1
    __rt_lib_init_lc_monetary_1
    __rt_lib_init_lc_numeric_2
        0x00000194:    2000        .       MOVS     r0,#0
        0x00000196:    2100        .!      MOVS     r1,#0
        0x00000198:    f001fb7c    ..|.    BL       _get_lc_numeric ; 0x1894
        0x0000019c:    60e0        .`      STR      r0,[r4,#0xc]
    .ARM.Collect$$libinit$$00000013
    .ARM.Collect$$libinit$$00000015
    .ARM.Collect$$libinit$$00000017
    .ARM.Collect$$libinit$$00000019
    .ARM.Collect$$libinit$$0000001B
    .ARM.Collect$$libinit$$0000001D
    .ARM.Collect$$libinit$$0000001F
    .ARM.Collect$$libinit$$00000021
    .ARM.Collect$$libinit$$00000028
    .ARM.Collect$$libinit$$0000002A
    .ARM.Collect$$libinit$$0000002C
    .ARM.Collect$$libinit$$0000002E
    .ARM.Collect$$libinit$$0000002F
    __rt_lib_init_alloca_1
    __rt_lib_init_argv_1
    __rt_lib_init_atexit_1
    __rt_lib_init_clock_1
    __rt_lib_init_cpp_1
    __rt_lib_init_exceptions_1
    __rt_lib_init_fp_trap_1
    __rt_lib_init_getenv_1
    __rt_lib_init_lc_numeric_1
    __rt_lib_init_lc_time_1
    __rt_lib_init_return
    __rt_lib_init_signal_1
    __rt_lib_init_stdio_1
        0x0000019e:    bd1f        ..      POP      {r0-r4,pc}
    .ARM.Collect$$libshutdown$$00000000
    __rt_lib_shutdown
        0x000001a0:    b510        ..      PUSH     {r4,lr}
    .ARM.Collect$$libshutdown$$00000003
    .ARM.Collect$$libshutdown$$00000006
    .ARM.Collect$$libshutdown$$00000009
    .ARM.Collect$$libshutdown$$0000000B
    .ARM.Collect$$libshutdown$$0000000E
    .ARM.Collect$$libshutdown$$0000000F
    __rt_lib_shutdown_fp_trap_1
    __rt_lib_shutdown_heap_1
    __rt_lib_shutdown_return
    __rt_lib_shutdown_signal_1
    __rt_lib_shutdown_stdio_1
    __rt_lib_shutdown_user_alloc_1
        0x000001a2:    bd10        ..      POP      {r4,pc}
    .ARM.Collect$$rtentry$$00000000
    .ARM.Collect$$rtentry$$00000002
    .ARM.Collect$$rtentry$$00000004
    __rt_entry
    __rt_entry_presh_1
    __rt_entry_sh
        0x000001a4:    f001fadc    ....    BL       __user_setup_stackheap ; 0x1760
        0x000001a8:    4611        .F      MOV      r1,r2
    .ARM.Collect$$rtentry$$00000009
    .ARM.Collect$$rtentry$$0000000A
    __rt_entry_li
    __rt_entry_postsh_1
        0x000001aa:    f7ffffed    ....    BL       __rt_lib_init ; 0x188
    .ARM.Collect$$rtentry$$0000000C
    .ARM.Collect$$rtentry$$0000000D
    __rt_entry_main
    __rt_entry_postli_1
        0x000001ae:    f000f8a7    ....    BL       main ; 0x300
        0x000001b2:    f001faf4    ....    BL       exit ; 0x179e
    .ARM.Collect$$rtexit$$00000000
    __rt_exit
        0x000001b6:    b403        ..      PUSH     {r0,r1}
    .ARM.Collect$$rtexit$$00000002
    .ARM.Collect$$rtexit$$00000003
    __rt_exit_ls
    __rt_exit_prels_1
        0x000001b8:    f7fffff2    ....    BL       __rt_lib_shutdown ; 0x1a0
    .ARM.Collect$$rtexit$$00000004
    __rt_exit_exit
        0x000001bc:    bc03        ..      POP      {r0,r1}
        0x000001be:    f000f82e    ....    BL       _sys_exit ; 0x21e
        0x000001c2:    0000        ..      MOVS     r0,r0
    .text
    Reset_Handler
        0x000001c4:    4807        .H      LDR      r0,[pc,#28] ; [0x1e4] = 0x229
        0x000001c6:    4780        .G      BLX      r0
        0x000001c8:    4807        .H      LDR      r0,[pc,#28] ; [0x1e8] = 0xc1
        0x000001ca:    4700        .G      BX       r0
    NMI_Handler
        0x000001cc:    e7fe        ..      B        NMI_Handler ; 0x1cc
    HardFault_Handler
        0x000001ce:    e7fe        ..      B        HardFault_Handler ; 0x1ce
    SVC_Handler
        0x000001d0:    e7fe        ..      B        SVC_Handler ; 0x1d0
    PendSV_Handler
        0x000001d2:    e7fe        ..      B        PendSV_Handler ; 0x1d2
    SysTick_Handler
        0x000001d4:    e7fe        ..      B        SysTick_Handler ; 0x1d4
    APBKEY_IRQHandler
    GPIO_IRQHandler
    IIC_IRQHandler
    PWM_IRQHandler
    RSV0_IRQHandler
    RSV10_IRQHandler
    RSV11_IRQHandler
    RSV12_IRQHandler
    RSV13_IRQHandler
    RSV14_IRQHandler
    RSV15_IRQHandler
    RSV16_IRQHandler
    RSV17_IRQHandler
    RSV18_IRQHandler
    RSV19_IRQHandler
    RSV1_IRQHandler
    RSV20_IRQHandler
    RSV21_IRQHandler
    RSV22_IRQHandler
    RSV23_IRQHandler
    RSV24_IRQHandler
    RSV2_IRQHandler
    RSV3_IRQHandler
    RSV4_IRQHandler
    RSV5_IRQHandler
    RSV6_IRQHandler
    RSV7_IRQHandler
    RSV8_IRQHandler
    RSV9_IRQHandler
    STN_IRQHandler
    UART0_IRQHandler
    UART1_IRQHandler
        0x000001d6:    e7fe        ..      B        APBKEY_IRQHandler ; 0x1d6
    __user_initial_stackheap
        0x000001d8:    4804        .H      LDR      r0,[pc,#16] ; [0x1ec] = 0x20000068
        0x000001da:    4905        .I      LDR      r1,[pc,#20] ; [0x1f0] = 0x20000468
        0x000001dc:    4a05        .J      LDR      r2,[pc,#20] ; [0x1f4] = 0x20000268
        0x000001de:    4b06        .K      LDR      r3,[pc,#24] ; [0x1f8] = 0x20000268
        0x000001e0:    4770        pG      BX       lr
    $d
        0x000001e2:    0000        ..      DCW    0
        0x000001e4:    00000229    )...    DCD    553
        0x000001e8:    000000c1    ....    DCD    193
        0x000001ec:    20000068    h..     DCD    536871016
        0x000001f0:    20000468    h..     DCD    536872040
        0x000001f4:    20000268    h..     DCD    536871528
        0x000001f8:    20000268    h..     DCD    536871528
    $t
    .text
    fputc
        0x000001fc:    b570        p.      PUSH     {r4-r6,lr}
        0x000001fe:    4604        .F      MOV      r4,r0
        0x00000200:    460e        .F      MOV      r6,r1
        0x00000202:    b2e5        ..      UXTB     r5,r4
        0x00000204:    4628        (F      MOV      r0,r5
        0x00000206:    f000f82d    ..-.    BL       uartSendByte ; 0x264
        0x0000020a:    bd70        p.      POP      {r4-r6,pc}
    ferror
        0x0000020c:    4601        .F      MOV      r1,r0
        0x0000020e:    4805        .H      LDR      r0,[pc,#20] ; [0x224] = 0xffffffff
        0x00000210:    4770        pG      BX       lr
    _ttywrch
        0x00000212:    b510        ..      PUSH     {r4,lr}
        0x00000214:    4604        .F      MOV      r4,r0
        0x00000216:    b2e0        ..      UXTB     r0,r4
        0x00000218:    f000f824    ..$.    BL       uartSendByte ; 0x264
        0x0000021c:    bd10        ..      POP      {r4,pc}
    _sys_exit
        0x0000021e:    bf00        ..      NOP      
        0x00000220:    e7fe        ..      B        0x220 ; _sys_exit + 2
    $d
        0x00000222:    0000        ..      DCW    0
        0x00000224:    ffffffff    ....    DCD    4294967295
    $t
    .text
    SystemInit
        0x00000228:    4770        pG      BX       lr
        0x0000022a:    0000        ..      MOVS     r0,r0
    .text
    uartInit
        0x0000022c:    b570        p.      PUSH     {r4-r6,lr}
        0x0000022e:    4604        .F      MOV      r4,r0
        0x00000230:    2503        .%      MOVS     r5,#3
        0x00000232:    2600        .&      MOVS     r6,#0
        0x00000234:    00e1        ..      LSLS     r1,r4,#3
        0x00000236:    481a        .H      LDR      r0,[pc,#104] ; [0x2a0] = 0x2faf080
        0x00000238:    f000fb66    ..f.    BL       __aeabi_idiv ; 0x908
        0x0000023c:    1e46        F.      SUBS     r6,r0,#1
        0x0000023e:    bf00        ..      NOP      
        0x00000240:    2000        .       MOVS     r0,#0
        0x00000242:    4918        .I      LDR      r1,[pc,#96] ; [0x2a4] = 0x40000000
        0x00000244:    6088        .`      STR      r0,[r1,#8]
        0x00000246:    bf00        ..      NOP      
        0x00000248:    bf00        ..      NOP      
        0x0000024a:    6048        H`      STR      r0,[r1,#4]
        0x0000024c:    bf00        ..      NOP      
        0x0000024e:    bf00        ..      NOP      
        0x00000250:    4608        .F      MOV      r0,r1
        0x00000252:    60c6        .`      STR      r6,[r0,#0xc]
        0x00000254:    bf00        ..      NOP      
        0x00000256:    2004        .       MOVS     r0,#4
        0x00000258:    4305        .C      ORRS     r5,r5,r0
        0x0000025a:    bf00        ..      NOP      
        0x0000025c:    4811        .H      LDR      r0,[pc,#68] ; [0x2a4] = 0x40000000
        0x0000025e:    6085        .`      STR      r5,[r0,#8]
        0x00000260:    bf00        ..      NOP      
        0x00000262:    bd70        p.      POP      {r4-r6,pc}
    uartSendByte
        0x00000264:    bf00        ..      NOP      
        0x00000266:    490f        .I      LDR      r1,[pc,#60] ; [0x2a4] = 0x40000000
        0x00000268:    6849        Ih      LDR      r1,[r1,#4]
        0x0000026a:    2204        ."      MOVS     r2,#4
        0x0000026c:    4011        .@      ANDS     r1,r1,r2
        0x0000026e:    0889        ..      LSRS     r1,r1,#2
        0x00000270:    d0f9        ..      BEQ      0x266 ; uartSendByte + 2
        0x00000272:    bf00        ..      NOP      
        0x00000274:    490b        .I      LDR      r1,[pc,#44] ; [0x2a4] = 0x40000000
        0x00000276:    6008        .`      STR      r0,[r1,#0]
        0x00000278:    bf00        ..      NOP      
        0x0000027a:    bf00        ..      NOP      
        0x0000027c:    4909        .I      LDR      r1,[pc,#36] ; [0x2a4] = 0x40000000
        0x0000027e:    6849        Ih      LDR      r1,[r1,#4]
        0x00000280:    2206        ."      MOVS     r2,#6
        0x00000282:    4011        .@      ANDS     r1,r1,r2
        0x00000284:    2906        .)      CMP      r1,#6
        0x00000286:    d1f9        ..      BNE      0x27c ; uartSendByte + 24
        0x00000288:    4770        pG      BX       lr
    puts
        0x0000028a:    b500        ..      PUSH     {lr}
        0x0000028c:    4603        .F      MOV      r3,r0
        0x0000028e:    e003        ..      B        0x298 ; puts + 14
        0x00000290:    7818        .x      LDRB     r0,[r3,#0]
        0x00000292:    1c5b        [.      ADDS     r3,r3,#1
        0x00000294:    f7ffffe6    ....    BL       uartSendByte ; 0x264
        0x00000298:    7818        .x      LDRB     r0,[r3,#0]
        0x0000029a:    2800        .(      CMP      r0,#0
        0x0000029c:    d1f8        ..      BNE      0x290 ; puts + 6
        0x0000029e:    bd00        ..      POP      {pc}
    $d
        0x000002a0:    02faf080    ....    DCD    50000000
        0x000002a4:    40000000    ...@    DCD    1073741824
    $t
    .text
    __I$use$semihosting
    __use_no_semihosting_swi
        0x000002a8:    4770        pG      BX       lr
        0x000002aa:    0000        ..      MOVS     r0,r0
    .text
    __2printf
        0x000002ac:    b40f        ..      PUSH     {r0-r3}
        0x000002ae:    4905        .I      LDR      r1,[pc,#20] ; [0x2c4] = 0x20000000
        0x000002b0:    b510        ..      PUSH     {r4,lr}
        0x000002b2:    aa03        ..      ADD      r2,sp,#0xc
        0x000002b4:    9802        ..      LDR      r0,[sp,#8]
        0x000002b6:    f000fed9    ....    BL       _printf_char_file ; 0x106c
        0x000002ba:    bc10        ..      POP      {r4}
        0x000002bc:    bc08        ..      POP      {r3}
        0x000002be:    b004        ..      ADD      sp,sp,#0x10
        0x000002c0:    4718        .G      BX       r3
    $d
        0x000002c2:    0000        ..      DCW    0
        0x000002c4:    20000000    ...     DCD    536870912
    $t
    .text
    __2sprintf
        0x000002c8:    b40f        ..      PUSH     {r0-r3}
        0x000002ca:    b51c        ..      PUSH     {r2-r4,lr}
        0x000002cc:    4b07        .K      LDR      r3,[pc,#28] ; [0x2ec] = 0xd61
        0x000002ce:    aa06        ..      ADD      r2,sp,#0x18
        0x000002d0:    447b        {D      ADD      r3,r3,pc
        0x000002d2:    4669        iF      MOV      r1,sp
        0x000002d4:    9000        ..      STR      r0,[sp,#0]
        0x000002d6:    9805        ..      LDR      r0,[sp,#0x14]
        0x000002d8:    f000fe99    ....    BL       _printf_char_common ; 0x100e
        0x000002dc:    2000        .       MOVS     r0,#0
        0x000002de:    4669        iF      MOV      r1,sp
        0x000002e0:    f000fea8    ....    BL       _sputc ; 0x1034
        0x000002e4:    bc1c        ..      POP      {r2-r4}
        0x000002e6:    bc08        ..      POP      {r3}
        0x000002e8:    b004        ..      ADD      sp,sp,#0x10
        0x000002ea:    4718        .G      BX       r3
    $d
        0x000002ec:    00000d61    a...    DCD    3425
    $t
    .text
    __use_two_region_memory
        0x000002f0:    4770        pG      BX       lr
    __rt_heap_escrow$2region
        0x000002f2:    4770        pG      BX       lr
    __rt_heap_expand$2region
        0x000002f4:    4770        pG      BX       lr
    x$fpl$usenofp
    __I$use$fp
        0x000002f6:    0000        ..      MOVS     r0,r0
        0x000002f8:    0000        ..      MOVS     r0,r0
        0x000002fa:    0000        ..      MOVS     r0,r0
    $d
    .ARM.__at_0x02FC
        0x000002fc:    ffffffff    ....    DCD    4294967295
    $t
    .text
    main
        0x00000300:    b08e        ..      SUB      sp,sp,#0x38
        0x00000302:    4d5d        ]M      LDR      r5,[pc,#372] ; [0x478] = 0x168
        0x00000304:    485d        ]H      LDR      r0,[pc,#372] ; [0x47c] = 0x4d2
        0x00000306:    9006        ..      STR      r0,[sp,#0x18]
        0x00000308:    26d3        .&      MOVS     r6,#0xd3
        0x0000030a:    4f5d        ]O      LDR      r7,[pc,#372] ; [0x480] = 0x4dc5
        0x0000030c:    a05d        ].      ADR      r0,{pc}+0x178 ; 0x484
        0x0000030e:    9906        ..      LDR      r1,[sp,#0x18]
        0x00000310:    f7ffffcc    ....    BL       __2printf ; 0x2ac
        0x00000314:    4632        2F      MOV      r2,r6
        0x00000316:    4631        1F      MOV      r1,r6
        0x00000318:    a05e        ^.      ADR      r0,{pc}+0x17c ; 0x494
        0x0000031a:    f7ffffc7    ....    BL       __2printf ; 0x2ac
        0x0000031e:    463a        :F      MOV      r2,r7
        0x00000320:    4639        9F      MOV      r1,r7
        0x00000322:    a061        a.      ADR      r0,{pc}+0x186 ; 0x4a8
        0x00000324:    f7ffffc2    ....    BL       __2printf ; 0x2ac
        0x00000328:    20e1        .       MOVS     r0,#0xe1
        0x0000032a:    0240        @.      LSLS     r0,r0,#9
        0x0000032c:    f7ffff7e    ..~.    BL       uartInit ; 0x22c
        0x00000330:    a062        b.      ADR      r0,{pc}+0x18c ; 0x4bc
        0x00000332:    9007        ..      STR      r0,[sp,#0x1c]
        0x00000334:    a165        e.      ADR      r1,{pc}+0x198 ; 0x4cc
        0x00000336:    a808        ..      ADD      r0,sp,#0x20
        0x00000338:    f000fab6    ....    BL       strcpy ; 0x8a8
        0x0000033c:    200c        .       MOVS     r0,#0xc
        0x0000033e:    6020         `      STR      r0,[r4,#0]
        0x00000340:    2041        A       MOVS     r0,#0x41
        0x00000342:    900d        ..      STR      r0,[sp,#0x34]
        0x00000344:    a064        d.      ADR      r0,{pc}+0x194 ; 0x4d8
        0x00000346:    f7ffffb1    ....    BL       __2printf ; 0x2ac
        0x0000034a:    a06f        o.      ADR      r0,{pc}+0x1be ; 0x508
        0x0000034c:    f7ffffae    ....    BL       __2printf ; 0x2ac
        0x00000350:    a16e        n.      ADR      r1,{pc}+0x1bc ; 0x50c
        0x00000352:    a073        s.      ADR      r0,{pc}+0x1ce ; 0x520
        0x00000354:    f7ffffaa    ....    BL       __2printf ; 0x2ac
        0x00000358:    a072        r.      ADR      r0,{pc}+0x1cc ; 0x524
        0x0000035a:    9906        ..      LDR      r1,[sp,#0x18]
        0x0000035c:    f7ffffa6    ....    BL       __2printf ; 0x2ac
        0x00000360:    a072        r.      ADR      r0,{pc}+0x1cc ; 0x52c
        0x00000362:    9906        ..      LDR      r1,[sp,#0x18]
        0x00000364:    f7ffffa2    ....    BL       __2printf ; 0x2ac
        0x00000368:    4621        !F      MOV      r1,r4
        0x0000036a:    a072        r.      ADR      r0,{pc}+0x1ca ; 0x534
        0x0000036c:    f7ffff9e    ....    BL       __2printf ; 0x2ac
        0x00000370:    a072        r.      ADR      r0,{pc}+0x1cc ; 0x53c
        0x00000372:    990d        ..      LDR      r1,[sp,#0x34]
        0x00000374:    f7ffff9a    ....    BL       __2printf ; 0x2ac
        0x00000378:    a072        r.      ADR      r0,{pc}+0x1cc ; 0x544
        0x0000037a:    990d        ..      LDR      r1,[sp,#0x34]
        0x0000037c:    f7ffff96    ....    BL       __2printf ; 0x2ac
        0x00000380:    a908        ..      ADD      r1,sp,#0x20
        0x00000382:    a072        r.      ADR      r0,{pc}+0x1ca ; 0x54c
        0x00000384:    f7ffff92    ....    BL       __2printf ; 0x2ac
        0x00000388:    a908        ..      ADD      r1,sp,#0x20
        0x0000038a:    a073        s.      ADR      r0,{pc}+0x1ce ; 0x558
        0x0000038c:    f7ffff8e    ....    BL       __2printf ; 0x2ac
        0x00000390:    a908        ..      ADD      r1,sp,#0x20
        0x00000392:    a075        u.      ADR      r0,{pc}+0x1d6 ; 0x568
        0x00000394:    f7ffff8a    ....    BL       __2printf ; 0x2ac
        0x00000398:    a075        u.      ADR      r0,{pc}+0x1d8 ; 0x570
        0x0000039a:    9907        ..      LDR      r1,[sp,#0x1c]
        0x0000039c:    f7ffff86    ....    BL       __2printf ; 0x2ac
        0x000003a0:    a059        Y.      ADR      r0,{pc}+0x168 ; 0x508
        0x000003a2:    f7ffff83    ....    BL       __2printf ; 0x2ac
        0x000003a6:    a058        X.      ADR      r0,{pc}+0x162 ; 0x508
        0x000003a8:    f7ffff80    ....    BL       __2printf ; 0x2ac
        0x000003ac:    4622        "F      MOV      r2,r4
        0x000003ae:    a173        s.      ADR      r1,{pc}+0x1ce ; 0x57c
        0x000003b0:    a808        ..      ADD      r0,sp,#0x20
        0x000003b2:    f7ffff89    ....    BL       __2sprintf ; 0x2c8
        0x000003b6:    a808        ..      ADD      r0,sp,#0x20
        0x000003b8:    f7ffff67    ..g.    BL       puts ; 0x28a
        0x000003bc:    a052        R.      ADR      r0,{pc}+0x14c ; 0x508
        0x000003be:    f7ffff75    ..u.    BL       __2printf ; 0x2ac
        0x000003c2:    4622        "F      MOV      r2,r4
        0x000003c4:    a16f        o.      ADR      r1,{pc}+0x1c0 ; 0x584
        0x000003c6:    a808        ..      ADD      r0,sp,#0x20
        0x000003c8:    f7ffff7e    ..~.    BL       __2sprintf ; 0x2c8
        0x000003cc:    a808        ..      ADD      r0,sp,#0x20
        0x000003ce:    f7ffff5c    ..\.    BL       puts ; 0x28a
        0x000003d2:    a04d        M.      ADR      r0,{pc}+0x136 ; 0x508
        0x000003d4:    f7ffff6a    ..j.    BL       __2printf ; 0x2ac
        0x000003d8:    4621        !F      MOV      r1,r4
        0x000003da:    a054        T.      ADR      r0,{pc}+0x152 ; 0x52c
        0x000003dc:    f7ffff66    ..f.    BL       __2printf ; 0x2ac
        0x000003e0:    4621        !F      MOV      r1,r4
        0x000003e2:    a06a        j.      ADR      r0,{pc}+0x1aa ; 0x58c
        0x000003e4:    f7ffff62    ..b.    BL       __2printf ; 0x2ac
        0x000003e8:    4621        !F      MOV      r1,r4
        0x000003ea:    a06d        m.      ADR      r0,{pc}+0x1b6 ; 0x5a0
        0x000003ec:    f7ffff5e    ..^.    BL       __2printf ; 0x2ac
        0x000003f0:    a045        E.      ADR      r0,{pc}+0x118 ; 0x508
        0x000003f2:    f7ffff5b    ..[.    BL       __2printf ; 0x2ac
        0x000003f6:    a044        D.      ADR      r0,{pc}+0x112 ; 0x508
        0x000003f8:    f7ffff58    ..X.    BL       __2printf ; 0x2ac
        0x000003fc:    a16a        j.      ADR      r1,{pc}+0x1ac ; 0x5a8
        0x000003fe:    a06d        m.      ADR      r0,{pc}+0x1b6 ; 0x5b4
        0x00000400:    f7ffff54    ..T.    BL       __2printf ; 0x2ac
        0x00000404:    a06c        l.      ADR      r0,{pc}+0x1b4 ; 0x5b8
        0x00000406:    f7ffff51    ..Q.    BL       __2printf ; 0x2ac
        0x0000040a:    a16e        n.      ADR      r1,{pc}+0x1ba ; 0x5c4
        0x0000040c:    a06e        n.      ADR      r0,{pc}+0x1bc ; 0x5c8
        0x0000040e:    f7ffff4d    ..M.    BL       __2printf ; 0x2ac
        0x00000412:    a03d        =.      ADR      r0,{pc}+0xf6 ; 0x508
        0x00000414:    f7ffff4a    ..J.    BL       __2printf ; 0x2ac
        0x00000418:    a03b        ;.      ADR      r0,{pc}+0xf0 ; 0x508
        0x0000041a:    f7ffff47    ..G.    BL       __2printf ; 0x2ac
        0x0000041e:    4628        (F      MOV      r0,r5
        0x00000420:    f000fb8e    ....    BL       __aeabi_i2f ; 0xb40
        0x00000424:    9003        ..      STR      r0,[sp,#0xc]
        0x00000426:    f000fb3f    ..?.    BL       __aeabi_f2d ; 0xaa8
        0x0000042a:    4602        .F      MOV      r2,r0
        0x0000042c:    460b        .F      MOV      r3,r1
        0x0000042e:    9105        ..      STR      r1,[sp,#0x14]
        0x00000430:    9004        ..      STR      r0,[sp,#0x10]
        0x00000432:    a069        i.      ADR      r0,{pc}+0x1a6 ; 0x5d8
        0x00000434:    f7ffff3a    ..:.    BL       __2printf ; 0x2ac
        0x00000438:    4628        (F      MOV      r0,r5
        0x0000043a:    f000fb29    ..).    BL       __aeabi_i2d ; 0xa90
        0x0000043e:    9105        ..      STR      r1,[sp,#0x14]
        0x00000440:    9004        ..      STR      r0,[sp,#0x10]
        0x00000442:    4628        (F      MOV      r0,r5
        0x00000444:    f000fb7c    ..|.    BL       __aeabi_i2f ; 0xb40
        0x00000448:    9001        ..      STR      r0,[sp,#4]
        0x0000044a:    f000fb2d    ..-.    BL       __aeabi_f2d ; 0xaa8
        0x0000044e:    9103        ..      STR      r1,[sp,#0xc]
        0x00000450:    9002        ..      STR      r0,[sp,#8]
        0x00000452:    9905        ..      LDR      r1,[sp,#0x14]
        0x00000454:    9804        ..      LDR      r0,[sp,#0x10]
        0x00000456:    9101        ..      STR      r1,[sp,#4]
        0x00000458:    9000        ..      STR      r0,[sp,#0]
        0x0000045a:    4629        )F      MOV      r1,r5
        0x0000045c:    a060        `.      ADR      r0,{pc}+0x184 ; 0x5e0
        0x0000045e:    9b03        ..      LDR      r3,[sp,#0xc]
        0x00000460:    9a02        ..      LDR      r2,[sp,#8]
        0x00000462:    f7ffff23    ..#.    BL       __2printf ; 0x2ac
        0x00000466:    a028        (.      ADR      r0,{pc}+0xa2 ; 0x508
        0x00000468:    f7ffff20    .. .    BL       __2printf ; 0x2ac
        0x0000046c:    207e        ~       MOVS     r0,#0x7e
        0x0000046e:    f7fffef9    ....    BL       uartSendByte ; 0x264
        0x00000472:    bf00        ..      NOP      
        0x00000474:    e7fe        ..      B        0x474 ; main + 372
    $d
        0x00000476:    0000        ..      DCW    0
        0x00000478:    00000168    h...    DCD    360
        0x0000047c:    000004d2    ....    DCD    1234
        0x00000480:    00004dc5    .M..    DCD    19909
        0x00000484:    32312861    a(12    DCD    842082401
        0x00000488:    3d293433    34)=    DCD    1026110515
        0x0000048c:    0a782520     %x.    DCD    175645984
        0x00000490:    00000000    ....    DCD    0
        0x00000494:    78302862    b(0x    DCD    2016421986
        0x00000498:    3d293364    d3)=    DCD    1026110308
        0x0000049c:    2c782520     %x,    DCD    746071328
        0x000004a0:    0a642520     %d.    DCD    174335264
        0x000004a4:    00000000    ....    DCD    0
        0x000004a8:    78302865    e(0x    DCD    2016421989
        0x000004ac:    35636434    4dc5    DCD    895706164
        0x000004b0:    25203d29    )= %    DCD    622869801
        0x000004b4:    25202c78    x, %    DCD    622865528
        0x000004b8:    00000a64    d...    DCD    2660
        0x000004bc:    20776f48    How     DCD    544698184
        0x000004c0:    79206f64    do y    DCD    2032168804
        0x000004c4:    6420756f    ou d    DCD    1679848815
        0x000004c8:    0000006f    o...    DCD    111
        0x000004cc:    6c6c6548    Hell    DCD    1819043144
        0x000004d0:    41202c6f    o, A    DCD    1092627567
        0x000004d4:    002e796d    my..    DCD    3045741
        0x000004d8:    2057535b    [SW     DCD    542593883
        0x000004dc:    54534554    TEST    DCD    1414743380
        0x000004e0:    7473205d    ] st    DCD    1953701981
        0x000004e4:    20747261    art     DCD    544502369
        0x000004e8:    20656874    the     DCD    543516788
        0x000004ec:    74736574    test    DCD    1953719668
        0x000004f0:    6f727020     pro    DCD    1869770784
        0x000004f4:    6d617267    gram    DCD    1835102823
        0x000004f8:    6568203a    : he    DCD    1701322810
        0x000004fc:    5f6f6c6c    llo_    DCD    1601137772
        0x00000500:    74736574    test    DCD    1953719668
        0x00000504:    00000a21    !...    DCD    2593
        0x00000508:    0000000a    ....    DCD    10
        0x0000050c:    73696874    this    DCD    1936287860
        0x00000510:    20736920     is     DCD    544434464
        0x00000514:    616c2063    c la    DCD    1634476131
        0x00000518:    6175676e    ngua    DCD    1635084142
        0x0000051c:    00006567    ge..    DCD    25959
        0x00000520:    000a7325    %s..    DCD    684837
        0x00000524:    25203d61    a= %    DCD    622869857
        0x00000528:    00000a78    x...    DCD    2680
        0x0000052c:    0a206425    %d .    DCD    169894949
        0x00000530:    00000000    ....    DCD    0
        0x00000534:    203d2069    i =     DCD    540876905
        0x00000538:    000a7025    %p..    DCD    684069
        0x0000053c:    203d2063    c =     DCD    540876899
        0x00000540:    000a6325    %c..    DCD    680741
        0x00000544:    203d2063    c =     DCD    540876899
        0x00000548:    000a7825    %x..    DCD    686117
        0x0000054c:    205d5b73    s[]     DCD    542989171
        0x00000550:    7325203d    = %s    DCD    1931812925
        0x00000554:    0000000a    ....    DCD    10
        0x00000558:    205d5b73    s[]     DCD    542989171
        0x0000055c:    3625203d    = %6    DCD    908402749
        0x00000560:    0a73392e    .9s.    DCD    175323438
        0x00000564:    00000000    ....    DCD    0
        0x00000568:    203d2073    s =     DCD    540876915
        0x0000056c:    000a7025    %p..    DCD    684069
        0x00000570:    3d20702a    *p =    DCD    1025536042
        0x00000574:    0a732520     %s.    DCD    175318304
        0x00000578:    00000000    ....    DCD    0
        0x0000057c:    25203d49    I= %    DCD    622869833
        0x00000580:    00000a78    x...    DCD    2680
        0x00000584:    20203d69    i=      DCD    538983785
        0x00000588:    000a6425    %d..    DCD    680997
        0x0000058c:    62203031    10 b    DCD    1646276657
        0x00000590:    73657479    ytes    DCD    1936028793
        0x00000594:    255b203a    : [%    DCD    626729018
        0x00000598:    5d643031    10d]    DCD    1566847025
        0x0000059c:    0000000a    ....    DCD    10
        0x000005a0:    0a207825    %x .    DCD    169900069
        0x000005a4:    00000000    ....    DCD    0
        0x000005a8:    73696874    this    DCD    1936287860
        0x000005ac:    20736920     is     DCD    544434464
        0x000005b0:    00002063    c ..    DCD    8291
        0x000005b4:    00007325    %s..    DCD    29477
        0x000005b8:    676e616c    lang    DCD    1735287148
        0x000005bc:    65676175    uage    DCD    1701273973
        0x000005c0:    00000009    ....    DCD    9
        0x000005c4:    00505358    XSP.    DCD    5264216
        0x000005c8:    68747561    auth    DCD    1752462689
        0x000005cc:    6920726f    or i    DCD    1763734127
        0x000005d0:    73252073    s %s    DCD    1931812979
        0x000005d4:    0000000a    ....    DCD    10
        0x000005d8:    2e0a6625    %f..    DCD    772433445
        0x000005dc:    00000000    ....    DCD    0
        0x000005e0:    65746e69    inte    DCD    1702129257
        0x000005e4:    3a726567    ger:    DCD    980575591
        0x000005e8:    2e0a6425    %d..    DCD    772432933
        0x000005ec:    63656420     dec    DCD    1667589152
        0x000005f0:    6c616d69    imal    DCD    1818324329
        0x000005f4:    0a66253a    :%f.    DCD    174466362
        0x000005f8:    6373202e    . sc    DCD    1668489262
        0x000005fc:    636e6569    ienc    DCD    1668179305
        0x00000600:    65253a65    e:%e    DCD    1696938597
        0x00000604:    0000000a    ....    DCD    10
    $t
    .text
    _printf_pre_padding
        0x00000608:    b570        p.      PUSH     {r4-r6,lr}
        0x0000060a:    4604        .F      MOV      r4,r0
        0x0000060c:    6985        .i      LDR      r5,[r0,#0x18]
        0x0000060e:    6800        .h      LDR      r0,[r0,#0]
        0x00000610:    2630        0&      MOVS     r6,#0x30
        0x00000612:    06c1        ..      LSLS     r1,r0,#27
        0x00000614:    d400        ..      BMI      0x618 ; _printf_pre_padding + 16
        0x00000616:    2620         &      MOVS     r6,#0x20
        0x00000618:    07c0        ..      LSLS     r0,r0,#31
        0x0000061a:    d007        ..      BEQ      0x62c ; _printf_pre_padding + 36
        0x0000061c:    bd70        p.      POP      {r4-r6,pc}
        0x0000061e:    6862        bh      LDR      r2,[r4,#4]
        0x00000620:    4630        0F      MOV      r0,r6
        0x00000622:    68a1        .h      LDR      r1,[r4,#8]
        0x00000624:    4790        .G      BLX      r2
        0x00000626:    6a20         j      LDR      r0,[r4,#0x20]
        0x00000628:    1c40        @.      ADDS     r0,r0,#1
        0x0000062a:    6220         b      STR      r0,[r4,#0x20]
        0x0000062c:    1e6d        m.      SUBS     r5,r5,#1
        0x0000062e:    d5f6        ..      BPL      0x61e ; _printf_pre_padding + 22
        0x00000630:    bd70        p.      POP      {r4-r6,pc}
    _printf_post_padding
        0x00000632:    b570        p.      PUSH     {r4-r6,lr}
        0x00000634:    4604        .F      MOV      r4,r0
        0x00000636:    6985        .i      LDR      r5,[r0,#0x18]
        0x00000638:    6800        .h      LDR      r0,[r0,#0]
        0x0000063a:    07c0        ..      LSLS     r0,r0,#31
        0x0000063c:    d107        ..      BNE      0x64e ; _printf_post_padding + 28
        0x0000063e:    bd70        p.      POP      {r4-r6,pc}
        0x00000640:    6862        bh      LDR      r2,[r4,#4]
        0x00000642:    68a1        .h      LDR      r1,[r4,#8]
        0x00000644:    2020                MOVS     r0,#0x20
        0x00000646:    4790        .G      BLX      r2
        0x00000648:    6a20         j      LDR      r0,[r4,#0x20]
        0x0000064a:    1c40        @.      ADDS     r0,r0,#1
        0x0000064c:    6220         b      STR      r0,[r4,#0x20]
        0x0000064e:    1e6d        m.      SUBS     r5,r5,#1
        0x00000650:    d5f6        ..      BPL      0x640 ; _printf_post_padding + 14
        0x00000652:    bd70        p.      POP      {r4-r6,pc}
    .text
    _printf_str
        0x00000654:    b570        p.      PUSH     {r4-r6,lr}
        0x00000656:    4605        .F      MOV      r5,r0
        0x00000658:    460c        .F      MOV      r4,r1
        0x0000065a:    2a01        .*      CMP      r2,#1
        0x0000065c:    d005        ..      BEQ      0x66a ; _printf_str + 22
        0x0000065e:    6828        (h      LDR      r0,[r5,#0]
        0x00000660:    0680        ..      LSLS     r0,r0,#26
        0x00000662:    d500        ..      BPL      0x666 ; _printf_str + 18
        0x00000664:    69ea        .i      LDR      r2,[r5,#0x1c]
        0x00000666:    2300        .#      MOVS     r3,#0
        0x00000668:    e002        ..      B        0x670 ; _printf_str + 28
        0x0000066a:    2301        .#      MOVS     r3,#1
        0x0000066c:    e005        ..      B        0x67a ; _printf_str + 38
        0x0000066e:    1c5b        [.      ADDS     r3,r3,#1
        0x00000670:    4293        .B      CMP      r3,r2
        0x00000672:    d202        ..      BCS      0x67a ; _printf_str + 38
        0x00000674:    5ce0        .\      LDRB     r0,[r4,r3]
        0x00000676:    2800        .(      CMP      r0,#0
        0x00000678:    d1f9        ..      BNE      0x66e ; _printf_str + 26
        0x0000067a:    69a8        .i      LDR      r0,[r5,#0x18]
        0x0000067c:    18e6        ..      ADDS     r6,r4,r3
        0x0000067e:    1ac0        ..      SUBS     r0,r0,r3
        0x00000680:    61a8        .a      STR      r0,[r5,#0x18]
        0x00000682:    6a28        (j      LDR      r0,[r5,#0x20]
        0x00000684:    18c0        ..      ADDS     r0,r0,r3
        0x00000686:    6228        (b      STR      r0,[r5,#0x20]
        0x00000688:    4628        (F      MOV      r0,r5
        0x0000068a:    f7ffffbd    ....    BL       _printf_pre_padding ; 0x608
        0x0000068e:    e004        ..      B        0x69a ; _printf_str + 70
        0x00000690:    686a        jh      LDR      r2,[r5,#4]
        0x00000692:    7820         x      LDRB     r0,[r4,#0]
        0x00000694:    68a9        .h      LDR      r1,[r5,#8]
        0x00000696:    1c64        d.      ADDS     r4,r4,#1
        0x00000698:    4790        .G      BLX      r2
        0x0000069a:    42b4        .B      CMP      r4,r6
        0x0000069c:    d3f8        ..      BCC      0x690 ; _printf_str + 60
        0x0000069e:    4628        (F      MOV      r0,r5
        0x000006a0:    f7ffffc7    ....    BL       _printf_post_padding ; 0x632
        0x000006a4:    bd70        p.      POP      {r4-r6,pc}
        0x000006a6:    0000        ..      MOVS     r0,r0
    .text
    _printf_int_dec
        0x000006a8:    b5f7        ..      PUSH     {r0-r2,r4-r7,lr}
        0x000006aa:    2600        .&      MOVS     r6,#0
        0x000006ac:    2975        u)      CMP      r1,#0x75
        0x000006ae:    6810        .h      LDR      r0,[r2,#0]
        0x000006b0:    9900        ..      LDR      r1,[sp,#0]
        0x000006b2:    a514        ..      ADR      r5,{pc}+0x52 ; 0x704
        0x000006b4:    d011        ..      BEQ      0x6da ; _printf_int_dec + 50
        0x000006b6:    46c0        .F      MOV      r8,r8
        0x000006b8:    46c0        .F      MOV      r8,r8
        0x000006ba:    2800        .(      CMP      r0,#0
        0x000006bc:    da02        ..      BGE      0x6c4 ; _printf_int_dec + 28
        0x000006be:    4240        @B      RSBS     r0,r0,#0
        0x000006c0:    a511        ..      ADR      r5,{pc}+0x48 ; 0x708
        0x000006c2:    e008        ..      B        0x6d6 ; _printf_int_dec + 46
        0x000006c4:    9900        ..      LDR      r1,[sp,#0]
        0x000006c6:    6809        .h      LDR      r1,[r1,#0]
        0x000006c8:    078a        ..      LSLS     r2,r1,#30
        0x000006ca:    d501        ..      BPL      0x6d0 ; _printf_int_dec + 40
        0x000006cc:    a50f        ..      ADR      r5,{pc}+0x40 ; 0x70c
        0x000006ce:    e002        ..      B        0x6d6 ; _printf_int_dec + 46
        0x000006d0:    0749        I.      LSLS     r1,r1,#29
        0x000006d2:    d504        ..      BPL      0x6de ; _printf_int_dec + 54
        0x000006d4:    a50e        ..      ADR      r5,{pc}+0x3c ; 0x710
        0x000006d6:    2601        .&      MOVS     r6,#1
        0x000006d8:    e001        ..      B        0x6de ; _printf_int_dec + 54
        0x000006da:    46c0        .F      MOV      r8,r8
        0x000006dc:    46c0        .F      MOV      r8,r8
        0x000006de:    9f00        ..      LDR      r7,[sp,#0]
        0x000006e0:    2400        .$      MOVS     r4,#0
        0x000006e2:    3724        $7      ADDS     r7,r7,#0x24
        0x000006e4:    e004        ..      B        0x6f0 ; _printf_int_dec + 72
        0x000006e6:    f000fcd5    ....    BL       __rt_udiv10 ; 0x1094
        0x000006ea:    3130        01      ADDS     r1,r1,#0x30
        0x000006ec:    5539        9U      STRB     r1,[r7,r4]
        0x000006ee:    1c64        d.      ADDS     r4,r4,#1
        0x000006f0:    2800        .(      CMP      r0,#0
        0x000006f2:    d1f8        ..      BNE      0x6e6 ; _printf_int_dec + 62
        0x000006f4:    4633        3F      MOV      r3,r6
        0x000006f6:    462a        *F      MOV      r2,r5
        0x000006f8:    4621        !F      MOV      r1,r4
        0x000006fa:    9800        ..      LDR      r0,[sp,#0]
        0x000006fc:    f000fa2b    ..+.    BL       _printf_int_common ; 0xb56
        0x00000700:    bdfe        ..      POP      {r1-r7,pc}
    $d
        0x00000702:    0000        ..      DCW    0
        0x00000704:    00000000    ....    DCD    0
        0x00000708:    0000002d    -...    DCD    45
        0x0000070c:    0000002b    +...    DCD    43
        0x00000710:    00000020     ...    DCD    32
    $t
    .text
    _printf_hex_common
    _printf_longlong_hex
        0x00000714:    b570        p.      PUSH     {r4-r6,lr}
        0x00000716:    460d        .F      MOV      r5,r1
        0x00000718:    6801        .h      LDR      r1,[r0,#0]
        0x0000071a:    0509        ..      LSLS     r1,r1,#20
        0x0000071c:    d502        ..      BPL      0x724 ; _printf_hex_common + 16
        0x0000071e:    4c1d        .L      LDR      r4,[pc,#116] ; [0x794] = 0x11ac
        0x00000720:    447c        |D      ADD      r4,r4,pc
        0x00000722:    e002        ..      B        0x72a ; _printf_hex_common + 22
        0x00000724:    4c1b        .L      LDR      r4,[pc,#108] ; [0x794] = 0x11ac
        0x00000726:    447c        |D      ADD      r4,r4,pc
        0x00000728:    340e        .4      ADDS     r4,r4,#0xe
        0x0000072a:    4603        .F      MOV      r3,r0
        0x0000072c:    2100        .!      MOVS     r1,#0
        0x0000072e:    3324        $3      ADDS     r3,r3,#0x24
        0x00000730:    e005        ..      B        0x73e ; _printf_hex_common + 42
        0x00000732:    0716        ..      LSLS     r6,r2,#28
        0x00000734:    0f36        6.      LSRS     r6,r6,#28
        0x00000736:    5da6        .]      LDRB     r6,[r4,r6]
        0x00000738:    545e        ^T      STRB     r6,[r3,r1]
        0x0000073a:    1c49        I.      ADDS     r1,r1,#1
        0x0000073c:    0912        ..      LSRS     r2,r2,#4
        0x0000073e:    2a00        .*      CMP      r2,#0
        0x00000740:    d1f7        ..      BNE      0x732 ; _printf_hex_common + 30
        0x00000742:    6802        .h      LDR      r2,[r0,#0]
        0x00000744:    2300        .#      MOVS     r3,#0
        0x00000746:    0712        ..      LSLS     r2,r2,#28
        0x00000748:    d505        ..      BPL      0x756 ; _printf_hex_common + 66
        0x0000074a:    2d70        p-      CMP      r5,#0x70
        0x0000074c:    d007        ..      BEQ      0x75e ; _printf_hex_common + 74
        0x0000074e:    2900        .)      CMP      r1,#0
        0x00000750:    d001        ..      BEQ      0x756 ; _printf_hex_common + 66
        0x00000752:    3411        .4      ADDS     r4,r4,#0x11
        0x00000754:    2302        .#      MOVS     r3,#2
        0x00000756:    4622        "F      MOV      r2,r4
        0x00000758:    f000f9fd    ....    BL       _printf_int_common ; 0xb56
        0x0000075c:    bd70        p.      POP      {r4-r6,pc}
        0x0000075e:    3410        .4      ADDS     r4,r4,#0x10
        0x00000760:    2301        .#      MOVS     r3,#1
        0x00000762:    e7f8        ..      B        0x756 ; _printf_hex_common + 66
    _printf_int_hex
        0x00000764:    b570        p.      PUSH     {r4-r6,lr}
        0x00000766:    4604        .F      MOV      r4,r0
        0x00000768:    460d        .F      MOV      r5,r1
        0x0000076a:    4621        !F      MOV      r1,r4
        0x0000076c:    6810        .h      LDR      r0,[r2,#0]
        0x0000076e:    46c0        .F      MOV      r8,r8
        0x00000770:    46c0        .F      MOV      r8,r8
        0x00000772:    4602        .F      MOV      r2,r0
        0x00000774:    4629        )F      MOV      r1,r5
        0x00000776:    4620         F      MOV      r0,r4
        0x00000778:    f7ffffcc    ....    BL       _printf_hex_common ; 0x714
        0x0000077c:    bd70        p.      POP      {r4-r6,pc}
    _printf_hex_ptr
        0x0000077e:    b430        0.      PUSH     {r4,r5}
        0x00000780:    6803        .h      LDR      r3,[r0,#0]
        0x00000782:    2420         $      MOVS     r4,#0x20
        0x00000784:    6812        .h      LDR      r2,[r2,#0]
        0x00000786:    4323        #C      ORRS     r3,r3,r4
        0x00000788:    6003        .`      STR      r3,[r0,#0]
        0x0000078a:    2308        .#      MOVS     r3,#8
        0x0000078c:    61c3        .a      STR      r3,[r0,#0x1c]
        0x0000078e:    bc30        0.      POP      {r4,r5}
        0x00000790:    e7c0        ..      B        _printf_hex_common ; 0x714
    $d
        0x00000792:    0000        ..      DCW    0
        0x00000794:    000011ac    ....    DCD    4524
    $t
    .text
    __printf
        0x00000798:    b5f3        ..      PUSH     {r0,r1,r4-r7,lr}
        0x0000079a:    4604        .F      MOV      r4,r0
        0x0000079c:    2000        .       MOVS     r0,#0
        0x0000079e:    b081        ..      SUB      sp,sp,#4
        0x000007a0:    e07e        ~.      B        0x8a0 ; __printf + 264
        0x000007a2:    68e1        .h      LDR      r1,[r4,#0xc]
        0x000007a4:    4620         F      MOV      r0,r4
        0x000007a6:    4788        .G      BLX      r1
        0x000007a8:    2800        .(      CMP      r0,#0
        0x000007aa:    d07b        {.      BEQ      0x8a4 ; __printf + 268
        0x000007ac:    2825        %(      CMP      r0,#0x25
        0x000007ae:    d002        ..      BEQ      0x7b6 ; __printf + 30
        0x000007b0:    6862        bh      LDR      r2,[r4,#4]
        0x000007b2:    68a1        .h      LDR      r1,[r4,#8]
        0x000007b4:    e071        q.      B        0x89a ; __printf + 258
        0x000007b6:    68e1        .h      LDR      r1,[r4,#0xc]
        0x000007b8:    4620         F      MOV      r0,r4
        0x000007ba:    2500        .%      MOVS     r5,#0
        0x000007bc:    4788        .G      BLX      r1
        0x000007be:    4606        .F      MOV      r6,r0
        0x000007c0:    2000        .       MOVS     r0,#0
        0x000007c2:    61e0        .a      STR      r0,[r4,#0x1c]
        0x000007c4:    4607        .F      MOV      r7,r0
        0x000007c6:    61a0        .a      STR      r0,[r4,#0x18]
        0x000007c8:    2e2a        *.      CMP      r6,#0x2a
        0x000007ca:    d00a        ..      BEQ      0x7e2 ; __printf + 74
        0x000007cc:    4630        0F      MOV      r0,r6
        0x000007ce:    f001f859    ..Y.    BL       _is_digit ; 0x1884
        0x000007d2:    2800        .(      CMP      r0,#0
        0x000007d4:    d027        '.      BEQ      0x826 ; __printf + 142
        0x000007d6:    3e30        0>      SUBS     r6,r6,#0x30
        0x000007d8:    00b8        ..      LSLS     r0,r7,#2
        0x000007da:    1900        ..      ADDS     r0,r0,r4
        0x000007dc:    9000        ..      STR      r0,[sp,#0]
        0x000007de:    6186        .a      STR      r6,[r0,#0x18]
        0x000007e0:    e019        ..      B        0x816 ; __printf + 126
        0x000007e2:    9802        ..      LDR      r0,[sp,#8]
        0x000007e4:    00ba        ..      LSLS     r2,r7,#2
        0x000007e6:    1912        ..      ADDS     r2,r2,r4
        0x000007e8:    c802        ..      LDM      r0!,{r1}
        0x000007ea:    6191        .a      STR      r1,[r2,#0x18]
        0x000007ec:    9002        ..      STR      r0,[sp,#8]
        0x000007ee:    4620         F      MOV      r0,r4
        0x000007f0:    68e1        .h      LDR      r1,[r4,#0xc]
        0x000007f2:    4788        .G      BLX      r1
        0x000007f4:    2f01        ./      CMP      r7,#1
        0x000007f6:    4606        .F      MOV      r6,r0
        0x000007f8:    d117        ..      BNE      0x82a ; __printf + 146
        0x000007fa:    69e0        .i      LDR      r0,[r4,#0x1c]
        0x000007fc:    2800        .(      CMP      r0,#0
        0x000007fe:    da1f        ..      BGE      0x840 ; __printf + 168
        0x00000800:    2020                MOVS     r0,#0x20
        0x00000802:    4385        .C      BICS     r5,r5,r0
        0x00000804:    e01c        ..      B        0x840 ; __printf + 168
        0x00000806:    9800        ..      LDR      r0,[sp,#0]
        0x00000808:    210a        .!      MOVS     r1,#0xa
        0x0000080a:    6980        .i      LDR      r0,[r0,#0x18]
        0x0000080c:    4348        HC      MULS     r0,r1,r0
        0x0000080e:    9900        ..      LDR      r1,[sp,#0]
        0x00000810:    1980        ..      ADDS     r0,r0,r6
        0x00000812:    3830        08      SUBS     r0,r0,#0x30
        0x00000814:    6188        .a      STR      r0,[r1,#0x18]
        0x00000816:    4620         F      MOV      r0,r4
        0x00000818:    68e1        .h      LDR      r1,[r4,#0xc]
        0x0000081a:    4788        .G      BLX      r1
        0x0000081c:    4606        .F      MOV      r6,r0
        0x0000081e:    f001f831    ..1.    BL       _is_digit ; 0x1884
        0x00000822:    2800        .(      CMP      r0,#0
        0x00000824:    d1ef        ..      BNE      0x806 ; __printf + 110
        0x00000826:    2f01        ./      CMP      r7,#1
        0x00000828:    d00a        ..      BEQ      0x840 ; __printf + 168
        0x0000082a:    2e2e        ..      CMP      r6,#0x2e
        0x0000082c:    d108        ..      BNE      0x840 ; __printf + 168
        0x0000082e:    4620         F      MOV      r0,r4
        0x00000830:    68e1        .h      LDR      r1,[r4,#0xc]
        0x00000832:    4788        .G      BLX      r1
        0x00000834:    4606        .F      MOV      r6,r0
        0x00000836:    2020                MOVS     r0,#0x20
        0x00000838:    4305        .C      ORRS     r5,r5,r0
        0x0000083a:    1c7f        ..      ADDS     r7,r7,#1
        0x0000083c:    2f02        ./      CMP      r7,#2
        0x0000083e:    dbc3        ..      BLT      0x7c8 ; __printf + 48
        0x00000840:    69a0        .i      LDR      r0,[r4,#0x18]
        0x00000842:    2800        .(      CMP      r0,#0
        0x00000844:    da03        ..      BGE      0x84e ; __printf + 182
        0x00000846:    4240        @B      RSBS     r0,r0,#0
        0x00000848:    61a0        .a      STR      r0,[r4,#0x18]
        0x0000084a:    2001        .       MOVS     r0,#1
        0x0000084c:    4305        .C      ORRS     r5,r5,r0
        0x0000084e:    07e8        ..      LSLS     r0,r5,#31
        0x00000850:    d001        ..      BEQ      0x856 ; __printf + 190
        0x00000852:    2010        .       MOVS     r0,#0x10
        0x00000854:    4385        .C      BICS     r5,r5,r0
        0x00000856:    2e00        ..      CMP      r6,#0
        0x00000858:    d024        $.      BEQ      0x8a4 ; __printf + 268
        0x0000085a:    4630        0F      MOV      r0,r6
        0x0000085c:    3841        A8      SUBS     r0,r0,#0x41
        0x0000085e:    2819        .(      CMP      r0,#0x19
        0x00000860:    d803        ..      BHI      0x86a ; __printf + 210
        0x00000862:    2001        .       MOVS     r0,#1
        0x00000864:    02c0        ..      LSLS     r0,r0,#11
        0x00000866:    4305        .C      ORRS     r5,r5,r0
        0x00000868:    3620         6      ADDS     r6,r6,#0x20
        0x0000086a:    4620         F      MOV      r0,r4
        0x0000086c:    6025        %`      STR      r5,[r4,#0]
        0x0000086e:    4631        1F      MOV      r1,r6
        0x00000870:    9a02        ..      LDR      r2,[sp,#8]
        0x00000872:    4615        .F      MOV      r5,r2
        0x00000874:    f7fffc62    ..b.    BL       _printf_percent ; 0x13c
        0x00000878:    2800        .(      CMP      r0,#0
        0x0000087a:    d00b        ..      BEQ      0x894 ; __printf + 252
        0x0000087c:    2801        .(      CMP      r0,#1
        0x0000087e:    d006        ..      BEQ      0x88e ; __printf + 246
        0x00000880:    1ded        ..      ADDS     r5,r5,#7
        0x00000882:    08e8        ..      LSRS     r0,r5,#3
        0x00000884:    00c0        ..      LSLS     r0,r0,#3
        0x00000886:    3008        .0      ADDS     r0,r0,#8
        0x00000888:    9002        ..      STR      r0,[sp,#8]
        0x0000088a:    e78a        ..      B        0x7a2 ; __printf + 10
        0x0000088c:    e00a        ..      B        0x8a4 ; __printf + 268
        0x0000088e:    1d2d        -.      ADDS     r5,r5,#4
        0x00000890:    9502        ..      STR      r5,[sp,#8]
        0x00000892:    e786        ..      B        0x7a2 ; __printf + 10
        0x00000894:    6862        bh      LDR      r2,[r4,#4]
        0x00000896:    4630        0F      MOV      r0,r6
        0x00000898:    68a1        .h      LDR      r1,[r4,#8]
        0x0000089a:    4790        .G      BLX      r2
        0x0000089c:    6a20         j      LDR      r0,[r4,#0x20]
        0x0000089e:    1c40        @.      ADDS     r0,r0,#1
        0x000008a0:    6220         b      STR      r0,[r4,#0x20]
        0x000008a2:    e77e        ~.      B        0x7a2 ; __printf + 10
        0x000008a4:    6a20         j      LDR      r0,[r4,#0x20]
        0x000008a6:    bdfe        ..      POP      {r1-r7,pc}
    .text
    strcpy
        0x000008a8:    4603        .F      MOV      r3,r0
        0x000008aa:    b570        p.      PUSH     {r4-r6,lr}
        0x000008ac:    4602        .F      MOV      r2,r0
        0x000008ae:    430b        .C      ORRS     r3,r3,r1
        0x000008b0:    079b        ..      LSLS     r3,r3,#30
        0x000008b2:    d10f        ..      BNE      0x8d4 ; strcpy + 44
        0x000008b4:    4c0e        .L      LDR      r4,[pc,#56] ; [0x8f0] = 0x1010101
        0x000008b6:    01e6        ..      LSLS     r6,r4,#7
        0x000008b8:    e000        ..      B        0x8bc ; strcpy + 20
        0x000008ba:    c208        ..      STM      r2!,{r3}
        0x000008bc:    c908        ..      LDM      r1!,{r3}
        0x000008be:    1b1d        ..      SUBS     r5,r3,r4
        0x000008c0:    439d        .C      BICS     r5,r5,r3
        0x000008c2:    4235        5B      TST      r5,r6
        0x000008c4:    d0f9        ..      BEQ      0x8ba ; strcpy + 18
        0x000008c6:    b2d9        ..      UXTB     r1,r3
        0x000008c8:    7011        .p      STRB     r1,[r2,#0]
        0x000008ca:    1c52        R.      ADDS     r2,r2,#1
        0x000008cc:    2900        .)      CMP      r1,#0
        0x000008ce:    d00d        ..      BEQ      0x8ec ; strcpy + 68
        0x000008d0:    0a1b        ..      LSRS     r3,r3,#8
        0x000008d2:    e7f8        ..      B        0x8c6 ; strcpy + 30
        0x000008d4:    780b        .x      LDRB     r3,[r1,#0]
        0x000008d6:    1c49        I.      ADDS     r1,r1,#1
        0x000008d8:    7013        .p      STRB     r3,[r2,#0]
        0x000008da:    1c52        R.      ADDS     r2,r2,#1
        0x000008dc:    2b00        .+      CMP      r3,#0
        0x000008de:    d005        ..      BEQ      0x8ec ; strcpy + 68
        0x000008e0:    780b        .x      LDRB     r3,[r1,#0]
        0x000008e2:    1c49        I.      ADDS     r1,r1,#1
        0x000008e4:    7013        .p      STRB     r3,[r2,#0]
        0x000008e6:    1c52        R.      ADDS     r2,r2,#1
        0x000008e8:    2b00        .+      CMP      r3,#0
        0x000008ea:    d1f3        ..      BNE      0x8d4 ; strcpy + 44
        0x000008ec:    bd70        p.      POP      {r4-r6,pc}
    $d
        0x000008ee:    0000        ..      DCW    0
        0x000008f0:    01010101    ....    DCD    16843009
    $t
    .text
    __aeabi_uidiv
    __aeabi_uidivmod
        0x000008f4:    2200        ."      MOVS     r2,#0
        0x000008f6:    0903        ..      LSRS     r3,r0,#4
        0x000008f8:    428b        .B      CMP      r3,r1
        0x000008fa:    d32c        ,.      BCC      0x956 ; __aeabi_idiv + 78
        0x000008fc:    0a03        ..      LSRS     r3,r0,#8
        0x000008fe:    428b        .B      CMP      r3,r1
        0x00000900:    d311        ..      BCC      0x926 ; __aeabi_idiv + 30
        0x00000902:    2300        .#      MOVS     r3,#0
        0x00000904:    469c        .F      MOV      r12,r3
        0x00000906:    e04e        N.      B        0x9a6 ; __aeabi_idiv + 158
    __aeabi_idiv
    __aeabi_idivmod
        0x00000908:    4603        .F      MOV      r3,r0
        0x0000090a:    430b        .C      ORRS     r3,r3,r1
        0x0000090c:    d43c        <.      BMI      0x988 ; __aeabi_idiv + 128
        0x0000090e:    2200        ."      MOVS     r2,#0
        0x00000910:    0843        C.      LSRS     r3,r0,#1
        0x00000912:    428b        .B      CMP      r3,r1
        0x00000914:    d331        1.      BCC      0x97a ; __aeabi_idiv + 114
        0x00000916:    0903        ..      LSRS     r3,r0,#4
        0x00000918:    428b        .B      CMP      r3,r1
        0x0000091a:    d31c        ..      BCC      0x956 ; __aeabi_idiv + 78
        0x0000091c:    0a03        ..      LSRS     r3,r0,#8
        0x0000091e:    428b        .B      CMP      r3,r1
        0x00000920:    d301        ..      BCC      0x926 ; __aeabi_idiv + 30
        0x00000922:    4694        .F      MOV      r12,r2
        0x00000924:    e03f        ?.      B        0x9a6 ; __aeabi_idiv + 158
        0x00000926:    09c3        ..      LSRS     r3,r0,#7
        0x00000928:    428b        .B      CMP      r3,r1
        0x0000092a:    d301        ..      BCC      0x930 ; __aeabi_idiv + 40
        0x0000092c:    01cb        ..      LSLS     r3,r1,#7
        0x0000092e:    1ac0        ..      SUBS     r0,r0,r3
        0x00000930:    4152        RA      ADCS     r2,r2,r2
        0x00000932:    0983        ..      LSRS     r3,r0,#6
        0x00000934:    428b        .B      CMP      r3,r1
        0x00000936:    d301        ..      BCC      0x93c ; __aeabi_idiv + 52
        0x00000938:    018b        ..      LSLS     r3,r1,#6
        0x0000093a:    1ac0        ..      SUBS     r0,r0,r3
        0x0000093c:    4152        RA      ADCS     r2,r2,r2
        0x0000093e:    0943        C.      LSRS     r3,r0,#5
        0x00000940:    428b        .B      CMP      r3,r1
        0x00000942:    d301        ..      BCC      0x948 ; __aeabi_idiv + 64
        0x00000944:    014b        K.      LSLS     r3,r1,#5
        0x00000946:    1ac0        ..      SUBS     r0,r0,r3
        0x00000948:    4152        RA      ADCS     r2,r2,r2
        0x0000094a:    0903        ..      LSRS     r3,r0,#4
        0x0000094c:    428b        .B      CMP      r3,r1
        0x0000094e:    d301        ..      BCC      0x954 ; __aeabi_idiv + 76
        0x00000950:    010b        ..      LSLS     r3,r1,#4
        0x00000952:    1ac0        ..      SUBS     r0,r0,r3
        0x00000954:    4152        RA      ADCS     r2,r2,r2
        0x00000956:    08c3        ..      LSRS     r3,r0,#3
        0x00000958:    428b        .B      CMP      r3,r1
        0x0000095a:    d301        ..      BCC      0x960 ; __aeabi_idiv + 88
        0x0000095c:    00cb        ..      LSLS     r3,r1,#3
        0x0000095e:    1ac0        ..      SUBS     r0,r0,r3
        0x00000960:    4152        RA      ADCS     r2,r2,r2
        0x00000962:    0883        ..      LSRS     r3,r0,#2
        0x00000964:    428b        .B      CMP      r3,r1
        0x00000966:    d301        ..      BCC      0x96c ; __aeabi_idiv + 100
        0x00000968:    008b        ..      LSLS     r3,r1,#2
        0x0000096a:    1ac0        ..      SUBS     r0,r0,r3
        0x0000096c:    4152        RA      ADCS     r2,r2,r2
        0x0000096e:    0843        C.      LSRS     r3,r0,#1
        0x00000970:    428b        .B      CMP      r3,r1
        0x00000972:    d301        ..      BCC      0x978 ; __aeabi_idiv + 112
        0x00000974:    004b        K.      LSLS     r3,r1,#1
        0x00000976:    1ac0        ..      SUBS     r0,r0,r3
        0x00000978:    4152        RA      ADCS     r2,r2,r2
        0x0000097a:    1a41        A.      SUBS     r1,r0,r1
        0x0000097c:    d200        ..      BCS      0x980 ; __aeabi_idiv + 120
        0x0000097e:    4601        .F      MOV      r1,r0
        0x00000980:    4152        RA      ADCS     r2,r2,r2
        0x00000982:    4610        .F      MOV      r0,r2
        0x00000984:    4770        pG      BX       lr
        0x00000986:    e05d        ].      B        0xa44 ; __aeabi_idiv + 316
        0x00000988:    0fca        ..      LSRS     r2,r1,#31
        0x0000098a:    d000        ..      BEQ      0x98e ; __aeabi_idiv + 134
        0x0000098c:    4249        IB      RSBS     r1,r1,#0
        0x0000098e:    1003        ..      ASRS     r3,r0,#32
        0x00000990:    d300        ..      BCC      0x994 ; __aeabi_idiv + 140
        0x00000992:    4240        @B      RSBS     r0,r0,#0
        0x00000994:    4053        S@      EORS     r3,r3,r2
        0x00000996:    2200        ."      MOVS     r2,#0
        0x00000998:    469c        .F      MOV      r12,r3
        0x0000099a:    0903        ..      LSRS     r3,r0,#4
        0x0000099c:    428b        .B      CMP      r3,r1
        0x0000099e:    d32d        -.      BCC      0x9fc ; __aeabi_idiv + 244
        0x000009a0:    0a03        ..      LSRS     r3,r0,#8
        0x000009a2:    428b        .B      CMP      r3,r1
        0x000009a4:    d312        ..      BCC      0x9cc ; __aeabi_idiv + 196
        0x000009a6:    22fc        ."      MOVS     r2,#0xfc
        0x000009a8:    0189        ..      LSLS     r1,r1,#6
        0x000009aa:    ba12        ..      REV      r2,r2
        0x000009ac:    0a03        ..      LSRS     r3,r0,#8
        0x000009ae:    428b        .B      CMP      r3,r1
        0x000009b0:    d30c        ..      BCC      0x9cc ; __aeabi_idiv + 196
        0x000009b2:    0189        ..      LSLS     r1,r1,#6
        0x000009b4:    1192        ..      ASRS     r2,r2,#6
        0x000009b6:    428b        .B      CMP      r3,r1
        0x000009b8:    d308        ..      BCC      0x9cc ; __aeabi_idiv + 196
        0x000009ba:    0189        ..      LSLS     r1,r1,#6
        0x000009bc:    1192        ..      ASRS     r2,r2,#6
        0x000009be:    428b        .B      CMP      r3,r1
        0x000009c0:    d304        ..      BCC      0x9cc ; __aeabi_idiv + 196
        0x000009c2:    0189        ..      LSLS     r1,r1,#6
        0x000009c4:    d03a        :.      BEQ      0xa3c ; __aeabi_idiv + 308
        0x000009c6:    1192        ..      ASRS     r2,r2,#6
        0x000009c8:    e000        ..      B        0x9cc ; __aeabi_idiv + 196
        0x000009ca:    0989        ..      LSRS     r1,r1,#6
        0x000009cc:    09c3        ..      LSRS     r3,r0,#7
        0x000009ce:    428b        .B      CMP      r3,r1
        0x000009d0:    d301        ..      BCC      0x9d6 ; __aeabi_idiv + 206
        0x000009d2:    01cb        ..      LSLS     r3,r1,#7
        0x000009d4:    1ac0        ..      SUBS     r0,r0,r3
        0x000009d6:    4152        RA      ADCS     r2,r2,r2
        0x000009d8:    0983        ..      LSRS     r3,r0,#6
        0x000009da:    428b        .B      CMP      r3,r1
        0x000009dc:    d301        ..      BCC      0x9e2 ; __aeabi_idiv + 218
        0x000009de:    018b        ..      LSLS     r3,r1,#6
        0x000009e0:    1ac0        ..      SUBS     r0,r0,r3
        0x000009e2:    4152        RA      ADCS     r2,r2,r2
        0x000009e4:    0943        C.      LSRS     r3,r0,#5
        0x000009e6:    428b        .B      CMP      r3,r1
        0x000009e8:    d301        ..      BCC      0x9ee ; __aeabi_idiv + 230
        0x000009ea:    014b        K.      LSLS     r3,r1,#5
        0x000009ec:    1ac0        ..      SUBS     r0,r0,r3
        0x000009ee:    4152        RA      ADCS     r2,r2,r2
        0x000009f0:    0903        ..      LSRS     r3,r0,#4
        0x000009f2:    428b        .B      CMP      r3,r1
        0x000009f4:    d301        ..      BCC      0x9fa ; __aeabi_idiv + 242
        0x000009f6:    010b        ..      LSLS     r3,r1,#4
        0x000009f8:    1ac0        ..      SUBS     r0,r0,r3
        0x000009fa:    4152        RA      ADCS     r2,r2,r2
        0x000009fc:    08c3        ..      LSRS     r3,r0,#3
        0x000009fe:    428b        .B      CMP      r3,r1
        0x00000a00:    d301        ..      BCC      0xa06 ; __aeabi_idiv + 254
        0x00000a02:    00cb        ..      LSLS     r3,r1,#3
        0x00000a04:    1ac0        ..      SUBS     r0,r0,r3
        0x00000a06:    4152        RA      ADCS     r2,r2,r2
        0x00000a08:    0883        ..      LSRS     r3,r0,#2
        0x00000a0a:    428b        .B      CMP      r3,r1
        0x00000a0c:    d301        ..      BCC      0xa12 ; __aeabi_idiv + 266
        0x00000a0e:    008b        ..      LSLS     r3,r1,#2
        0x00000a10:    1ac0        ..      SUBS     r0,r0,r3
        0x00000a12:    4152        RA      ADCS     r2,r2,r2
        0x00000a14:    d2d9        ..      BCS      0x9ca ; __aeabi_idiv + 194
        0x00000a16:    0843        C.      LSRS     r3,r0,#1
        0x00000a18:    428b        .B      CMP      r3,r1
        0x00000a1a:    d301        ..      BCC      0xa20 ; __aeabi_idiv + 280
        0x00000a1c:    004b        K.      LSLS     r3,r1,#1
        0x00000a1e:    1ac0        ..      SUBS     r0,r0,r3
        0x00000a20:    4152        RA      ADCS     r2,r2,r2
        0x00000a22:    1a41        A.      SUBS     r1,r0,r1
        0x00000a24:    d200        ..      BCS      0xa28 ; __aeabi_idiv + 288
        0x00000a26:    4601        .F      MOV      r1,r0
        0x00000a28:    4663        cF      MOV      r3,r12
        0x00000a2a:    4152        RA      ADCS     r2,r2,r2
        0x00000a2c:    105b        [.      ASRS     r3,r3,#1
        0x00000a2e:    4610        .F      MOV      r0,r2
        0x00000a30:    d301        ..      BCC      0xa36 ; __aeabi_idiv + 302
        0x00000a32:    4240        @B      RSBS     r0,r0,#0
        0x00000a34:    2b00        .+      CMP      r3,#0
        0x00000a36:    d500        ..      BPL      0xa3a ; __aeabi_idiv + 306
        0x00000a38:    4249        IB      RSBS     r1,r1,#0
        0x00000a3a:    4770        pG      BX       lr
        0x00000a3c:    4663        cF      MOV      r3,r12
        0x00000a3e:    105b        [.      ASRS     r3,r3,#1
        0x00000a40:    d300        ..      BCC      0xa44 ; __aeabi_idiv + 316
        0x00000a42:    4240        @B      RSBS     r0,r0,#0
        0x00000a44:    b501        ..      PUSH     {r0,lr}
        0x00000a46:    2000        .       MOVS     r0,#0
        0x00000a48:    46c0        .F      MOV      r8,r8
        0x00000a4a:    46c0        .F      MOV      r8,r8
        0x00000a4c:    bd02        ..      POP      {r1,pc}
    .text
    __aeabi_i2d_normalise
        0x00000a4e:    221f        ."      MOVS     r2,#0x1f
        0x00000a50:    0c03        ..      LSRS     r3,r0,#16
        0x00000a52:    d102        ..      BNE      0xa5a ; __aeabi_i2d_normalise + 12
        0x00000a54:    220f        ."      MOVS     r2,#0xf
        0x00000a56:    0400        ..      LSLS     r0,r0,#16
        0x00000a58:    d002        ..      BEQ      0xa60 ; __aeabi_i2d_normalise + 18
        0x00000a5a:    0e03        ..      LSRS     r3,r0,#24
        0x00000a5c:    d003        ..      BEQ      0xa66 ; __aeabi_i2d_normalise + 24
        0x00000a5e:    e004        ..      B        0xa6a ; __aeabi_i2d_normalise + 28
        0x00000a60:    2000        .       MOVS     r0,#0
        0x00000a62:    4601        .F      MOV      r1,r0
        0x00000a64:    4770        pG      BX       lr
        0x00000a66:    3a08        .:      SUBS     r2,r2,#8
        0x00000a68:    0200        ..      LSLS     r0,r0,#8
        0x00000a6a:    0f03        ..      LSRS     r3,r0,#28
        0x00000a6c:    d101        ..      BNE      0xa72 ; __aeabi_i2d_normalise + 36
        0x00000a6e:    1f12        ..      SUBS     r2,r2,#4
        0x00000a70:    0100        ..      LSLS     r0,r0,#4
        0x00000a72:    0f83        ..      LSRS     r3,r0,#30
        0x00000a74:    d101        ..      BNE      0xa7a ; __aeabi_i2d_normalise + 44
        0x00000a76:    1e92        ..      SUBS     r2,r2,#2
        0x00000a78:    0080        ..      LSLS     r0,r0,#2
        0x00000a7a:    2800        .(      CMP      r0,#0
        0x00000a7c:    db01        ..      BLT      0xa82 ; __aeabi_i2d_normalise + 52
        0x00000a7e:    1e52        R.      SUBS     r2,r2,#1
        0x00000a80:    0040        @.      LSLS     r0,r0,#1
        0x00000a82:    0512        ..      LSLS     r2,r2,#20
        0x00000a84:    1851        Q.      ADDS     r1,r2,r1
        0x00000a86:    0542        B.      LSLS     r2,r0,#21
        0x00000a88:    12c0        ..      ASRS     r0,r0,#11
        0x00000a8a:    1841        A.      ADDS     r1,r0,r1
        0x00000a8c:    4610        .F      MOV      r0,r2
        0x00000a8e:    4770        pG      BX       lr
    __aeabi_i2d
    _dflt
        0x00000a90:    0fc1        ..      LSRS     r1,r0,#31
        0x00000a92:    07c9        ..      LSLS     r1,r1,#31
        0x00000a94:    d000        ..      BEQ      0xa98 ; __aeabi_i2d + 8
        0x00000a96:    4240        @B      RSBS     r0,r0,#0
        0x00000a98:    2201        ."      MOVS     r2,#1
        0x00000a9a:    0792        ..      LSLS     r2,r2,#30
        0x00000a9c:    4311        .C      ORRS     r1,r1,r2
        0x00000a9e:    e7d6        ..      B        __aeabi_i2d_normalise ; 0xa4e
    __aeabi_ui2d
    _dfltu
        0x00000aa0:    2101        .!      MOVS     r1,#1
        0x00000aa2:    0789        ..      LSLS     r1,r1,#30
        0x00000aa4:    e7d3        ..      B        __aeabi_i2d_normalise ; 0xa4e
        0x00000aa6:    0000        ..      MOVS     r0,r0
    .text
    __aeabi_f2d
    _f2d
        0x00000aa8:    2101        .!      MOVS     r1,#1
        0x00000aaa:    05c9        ..      LSLS     r1,r1,#23
        0x00000aac:    1841        A.      ADDS     r1,r0,r1
        0x00000aae:    004a        J.      LSLS     r2,r1,#1
        0x00000ab0:    0e52        R.      LSRS     r2,r2,#25
        0x00000ab2:    d00b        ..      BEQ      0xacc ; __aeabi_f2d + 36
        0x00000ab4:    10c1        ..      ASRS     r1,r0,#3
        0x00000ab6:    2207        ."      MOVS     r2,#7
        0x00000ab8:    06d2        ..      LSLS     r2,r2,#27
        0x00000aba:    1889        ..      ADDS     r1,r1,r2
        0x00000abc:    0740        @.      LSLS     r0,r0,#29
        0x00000abe:    4252        RB      RSBS     r2,r2,#0
        0x00000ac0:    188a        ..      ADDS     r2,r1,r2
        0x00000ac2:    d502        ..      BPL      0xaca ; __aeabi_f2d + 34
        0x00000ac4:    2209        ."      MOVS     r2,#9
        0x00000ac6:    0712        ..      LSLS     r2,r2,#28
        0x00000ac8:    1889        ..      ADDS     r1,r1,r2
        0x00000aca:    4770        pG      BX       lr
        0x00000acc:    0209        ..      LSLS     r1,r1,#8
        0x00000ace:    d506        ..      BPL      0xade ; __aeabi_f2d + 54
        0x00000ad0:    4601        .F      MOV      r1,r0
        0x00000ad2:    0040        @.      LSLS     r0,r0,#1
        0x00000ad4:    d0f9        ..      BEQ      0xaca ; __aeabi_f2d + 34
        0x00000ad6:    0fc9        ..      LSRS     r1,r1,#31
        0x00000ad8:    07c9        ..      LSLS     r1,r1,#31
        0x00000ada:    2000        .       MOVS     r0,#0
        0x00000adc:    4770        pG      BX       lr
        0x00000ade:    0242        B.      LSLS     r2,r0,#9
        0x00000ae0:    d002        ..      BEQ      0xae8 ; __aeabi_f2d + 64
        0x00000ae2:    2000        .       MOVS     r0,#0
        0x00000ae4:    4903        .I      LDR      r1,[pc,#12] ; [0xaf4] = 0x7ff80000
        0x00000ae6:    4770        pG      BX       lr
        0x00000ae8:    2107        .!      MOVS     r1,#7
        0x00000aea:    0509        ..      LSLS     r1,r1,#20
        0x00000aec:    4301        .C      ORRS     r1,r1,r0
        0x00000aee:    4610        .F      MOV      r0,r2
        0x00000af0:    4770        pG      BX       lr
    $d
        0x00000af2:    0000        ..      DCW    0
        0x00000af4:    7ff80000    ....    DCD    2146959360
    $t
    .text
    __aeabi_i2f_normalise
        0x00000af8:    221f        ."      MOVS     r2,#0x1f
        0x00000afa:    0c03        ..      LSRS     r3,r0,#16
        0x00000afc:    d102        ..      BNE      0xb04 ; __aeabi_i2f_normalise + 12
        0x00000afe:    220f        ."      MOVS     r2,#0xf
        0x00000b00:    0400        ..      LSLS     r0,r0,#16
        0x00000b02:    d01c        ..      BEQ      0xb3e ; __aeabi_i2f_normalise + 70
        0x00000b04:    0e03        ..      LSRS     r3,r0,#24
        0x00000b06:    d101        ..      BNE      0xb0c ; __aeabi_i2f_normalise + 20
        0x00000b08:    3a08        .:      SUBS     r2,r2,#8
        0x00000b0a:    0200        ..      LSLS     r0,r0,#8
        0x00000b0c:    0f03        ..      LSRS     r3,r0,#28
        0x00000b0e:    d101        ..      BNE      0xb14 ; __aeabi_i2f_normalise + 28
        0x00000b10:    1f12        ..      SUBS     r2,r2,#4
        0x00000b12:    0100        ..      LSLS     r0,r0,#4
        0x00000b14:    0f83        ..      LSRS     r3,r0,#30
        0x00000b16:    d101        ..      BNE      0xb1c ; __aeabi_i2f_normalise + 36
        0x00000b18:    1e92        ..      SUBS     r2,r2,#2
        0x00000b1a:    0080        ..      LSLS     r0,r0,#2
        0x00000b1c:    2800        .(      CMP      r0,#0
        0x00000b1e:    db01        ..      BLT      0xb24 ; __aeabi_i2f_normalise + 44
        0x00000b20:    1e52        R.      SUBS     r2,r2,#1
        0x00000b22:    0040        @.      LSLS     r0,r0,#1
        0x00000b24:    05d2        ..      LSLS     r2,r2,#23
        0x00000b26:    1851        Q.      ADDS     r1,r2,r1
        0x00000b28:    1202        ..      ASRS     r2,r0,#8
        0x00000b2a:    1851        Q.      ADDS     r1,r2,r1
        0x00000b2c:    2219        ."      MOVS     r2,#0x19
        0x00000b2e:    4090        .@      LSLS     r0,r0,r2
        0x00000b30:    d304        ..      BCC      0xb3c ; __aeabi_i2f_normalise + 68
        0x00000b32:    1c49        I.      ADDS     r1,r1,#1
        0x00000b34:    2800        .(      CMP      r0,#0
        0x00000b36:    d101        ..      BNE      0xb3c ; __aeabi_i2f_normalise + 68
        0x00000b38:    0849        I.      LSRS     r1,r1,#1
        0x00000b3a:    0049        I.      LSLS     r1,r1,#1
        0x00000b3c:    4608        .F      MOV      r0,r1
        0x00000b3e:    4770        pG      BX       lr
    __aeabi_i2f
    _fflt
        0x00000b40:    0fc1        ..      LSRS     r1,r0,#31
        0x00000b42:    07c9        ..      LSLS     r1,r1,#31
        0x00000b44:    d000        ..      BEQ      0xb48 ; __aeabi_i2f + 8
        0x00000b46:    4240        @B      RSBS     r0,r0,#0
        0x00000b48:    2201        ."      MOVS     r2,#1
        0x00000b4a:    0792        ..      LSLS     r2,r2,#30
        0x00000b4c:    4311        .C      ORRS     r1,r1,r2
        0x00000b4e:    e7d3        ..      B        __aeabi_i2f_normalise ; 0xaf8
    __aeabi_ui2f
    _ffltu
        0x00000b50:    2101        .!      MOVS     r1,#1
        0x00000b52:    0789        ..      LSLS     r1,r1,#30
        0x00000b54:    e7d0        ..      B        __aeabi_i2f_normalise ; 0xaf8
    .text
    _printf_int_common
        0x00000b56:    b5ff        ..      PUSH     {r0-r7,lr}
        0x00000b58:    4604        .F      MOV      r4,r0
        0x00000b5a:    460d        .F      MOV      r5,r1
        0x00000b5c:    b081        ..      SUB      sp,sp,#4
        0x00000b5e:    3024        $0      ADDS     r0,r0,#0x24
        0x00000b60:    9000        ..      STR      r0,[sp,#0]
        0x00000b62:    6821        !h      LDR      r1,[r4,#0]
        0x00000b64:    0688        ..      LSLS     r0,r1,#26
        0x00000b66:    d504        ..      BPL      0xb72 ; _printf_int_common + 28
        0x00000b68:    2210        ."      MOVS     r2,#0x10
        0x00000b6a:    69e0        .i      LDR      r0,[r4,#0x1c]
        0x00000b6c:    4391        .C      BICS     r1,r1,r2
        0x00000b6e:    6021        !`      STR      r1,[r4,#0]
        0x00000b70:    e000        ..      B        0xb74 ; _printf_int_common + 30
        0x00000b72:    2001        .       MOVS     r0,#1
        0x00000b74:    2700        .'      MOVS     r7,#0
        0x00000b76:    42a8        .B      CMP      r0,r5
        0x00000b78:    dd00        ..      BLE      0xb7c ; _printf_int_common + 38
        0x00000b7a:    1b47        G.      SUBS     r7,r0,r5
        0x00000b7c:    9804        ..      LDR      r0,[sp,#0x10]
        0x00000b7e:    69a1        .i      LDR      r1,[r4,#0x18]
        0x00000b80:    197a        z.      ADDS     r2,r7,r5
        0x00000b82:    1810        ..      ADDS     r0,r2,r0
        0x00000b84:    1a08        ..      SUBS     r0,r1,r0
        0x00000b86:    61a0        .a      STR      r0,[r4,#0x18]
        0x00000b88:    6820         h      LDR      r0,[r4,#0]
        0x00000b8a:    06c0        ..      LSLS     r0,r0,#27
        0x00000b8c:    d402        ..      BMI      0xb94 ; _printf_int_common + 62
        0x00000b8e:    4620         F      MOV      r0,r4
        0x00000b90:    f7fffd3a    ..:.    BL       _printf_pre_padding ; 0x608
        0x00000b94:    2600        .&      MOVS     r6,#0
        0x00000b96:    e008        ..      B        0xbaa ; _printf_int_common + 84
        0x00000b98:    9803        ..      LDR      r0,[sp,#0xc]
        0x00000b9a:    6862        bh      LDR      r2,[r4,#4]
        0x00000b9c:    68a1        .h      LDR      r1,[r4,#8]
        0x00000b9e:    5d80        .]      LDRB     r0,[r0,r6]
        0x00000ba0:    4790        .G      BLX      r2
        0x00000ba2:    6a20         j      LDR      r0,[r4,#0x20]
        0x00000ba4:    1c40        @.      ADDS     r0,r0,#1
        0x00000ba6:    1c76        v.      ADDS     r6,r6,#1
        0x00000ba8:    6220         b      STR      r0,[r4,#0x20]
        0x00000baa:    9804        ..      LDR      r0,[sp,#0x10]
        0x00000bac:    4286        .B      CMP      r6,r0
        0x00000bae:    dbf3        ..      BLT      0xb98 ; _printf_int_common + 66
        0x00000bb0:    6820         h      LDR      r0,[r4,#0]
        0x00000bb2:    06c0        ..      LSLS     r0,r0,#27
        0x00000bb4:    d50a        ..      BPL      0xbcc ; _printf_int_common + 118
        0x00000bb6:    4620         F      MOV      r0,r4
        0x00000bb8:    f7fffd26    ..&.    BL       _printf_pre_padding ; 0x608
        0x00000bbc:    e006        ..      B        0xbcc ; _printf_int_common + 118
        0x00000bbe:    6862        bh      LDR      r2,[r4,#4]
        0x00000bc0:    68a1        .h      LDR      r1,[r4,#8]
        0x00000bc2:    2030        0       MOVS     r0,#0x30
        0x00000bc4:    4790        .G      BLX      r2
        0x00000bc6:    6a20         j      LDR      r0,[r4,#0x20]
        0x00000bc8:    1c40        @.      ADDS     r0,r0,#1
        0x00000bca:    6220         b      STR      r0,[r4,#0x20]
        0x00000bcc:    4638        8F      MOV      r0,r7
        0x00000bce:    1e7f        ..      SUBS     r7,r7,#1
        0x00000bd0:    2800        .(      CMP      r0,#0
        0x00000bd2:    dcf4        ..      BGT      0xbbe ; _printf_int_common + 104
        0x00000bd4:    e007        ..      B        0xbe6 ; _printf_int_common + 144
        0x00000bd6:    9800        ..      LDR      r0,[sp,#0]
        0x00000bd8:    6862        bh      LDR      r2,[r4,#4]
        0x00000bda:    68a1        .h      LDR      r1,[r4,#8]
        0x00000bdc:    5d40        @]      LDRB     r0,[r0,r5]
        0x00000bde:    4790        .G      BLX      r2
        0x00000be0:    6a20         j      LDR      r0,[r4,#0x20]
        0x00000be2:    1c40        @.      ADDS     r0,r0,#1
        0x00000be4:    6220         b      STR      r0,[r4,#0x20]
        0x00000be6:    4628        (F      MOV      r0,r5
        0x00000be8:    1e6d        m.      SUBS     r5,r5,#1
        0x00000bea:    2800        .(      CMP      r0,#0
        0x00000bec:    dcf3        ..      BGT      0xbd6 ; _printf_int_common + 128
        0x00000bee:    4620         F      MOV      r0,r4
        0x00000bf0:    f7fffd1f    ....    BL       _printf_post_padding ; 0x632
        0x00000bf4:    6821        !h      LDR      r1,[r4,#0]
        0x00000bf6:    2002        .       MOVS     r0,#2
        0x00000bf8:    0609        ..      LSLS     r1,r1,#24
        0x00000bfa:    d400        ..      BMI      0xbfe ; _printf_int_common + 168
        0x00000bfc:    2001        .       MOVS     r0,#1
        0x00000bfe:    b005        ..      ADD      sp,sp,#0x14
        0x00000c00:    bdf0        ..      POP      {r4-r7,pc}
        0x00000c02:    0000        ..      MOVS     r0,r0
    .text
    __lib_sel_fp_printf
        0x00000c04:    4770        pG      BX       lr
    _fp_digits
        0x00000c06:    b5ff        ..      PUSH     {r0-r7,lr}
        0x00000c08:    460c        .F      MOV      r4,r1
        0x00000c0a:    461e        .F      MOV      r6,r3
        0x00000c0c:    b08d        ..      SUB      sp,sp,#0x34
        0x00000c0e:    ca03        ..      LDM      r2!,{r0,r1}
        0x00000c10:    9006        ..      STR      r0,[sp,#0x18]
        0x00000c12:    9107        ..      STR      r1,[sp,#0x1c]
        0x00000c14:    004f        O.      LSLS     r7,r1,#1
        0x00000c16:    0d7d        }.      LSRS     r5,r7,#21
        0x00000c18:    d100        ..      BNE      0xc1c ; _fp_digits + 22
        0x00000c1a:    1e6d        m.      SUBS     r5,r5,#1
        0x00000c1c:    2100        .!      MOVS     r1,#0
        0x00000c1e:    4608        .F      MOV      r0,r1
        0x00000c20:    2000        .       MOVS     r0,#0
        0x00000c22:    46c0        .F      MOV      r8,r8
        0x00000c24:    2103        .!      MOVS     r1,#3
        0x00000c26:    9a07        ..      LDR      r2,[sp,#0x1c]
        0x00000c28:    0589        ..      LSLS     r1,r1,#22
        0x00000c2a:    4008        .@      ANDS     r0,r0,r1
        0x00000c2c:    2a00        .*      CMP      r2,#0
        0x00000c2e:    da03        ..      BGE      0xc38 ; _fp_digits + 50
        0x00000c30:    0082        ..      LSLS     r2,r0,#2
        0x00000c32:    1880        ..      ADDS     r0,r0,r2
        0x00000c34:    0840        @.      LSRS     r0,r0,#1
        0x00000c36:    4008        .@      ANDS     r0,r0,r1
        0x00000c38:    0d80        ..      LSRS     r0,r0,#22
        0x00000c3a:    2801        .(      CMP      r0,#1
        0x00000c3c:    9008        ..      STR      r0,[sp,#0x20]
        0x00000c3e:    dd02        ..      BLE      0xc46 ; _fp_digits + 64
        0x00000c40:    2000        .       MOVS     r0,#0
        0x00000c42:    43c0        .C      MVNS     r0,r0
        0x00000c44:    9008        ..      STR      r0,[sp,#0x20]
        0x00000c46:    9806        ..      LDR      r0,[sp,#0x18]
        0x00000c48:    4307        .C      ORRS     r7,r7,r0
        0x00000c4a:    d02c        ,.      BEQ      0xca6 ; _fp_digits + 160
        0x00000c4c:    48ea        .H      LDR      r0,[pc,#936] ; [0xff8] = 0xfffffc01
        0x00000c4e:    49eb        .I      LDR      r1,[pc,#940] ; [0xffc] = 0x4d10
        0x00000c50:    1828        (.      ADDS     r0,r5,r0
        0x00000c52:    4348        HC      MULS     r0,r1,r0
        0x00000c54:    1407        ..      ASRS     r7,r0,#16
        0x00000c56:    9808        ..      LDR      r0,[sp,#0x20]
        0x00000c58:    4240        @B      RSBS     r0,r0,#0
        0x00000c5a:    900b        ..      STR      r0,[sp,#0x2c]
        0x00000c5c:    9816        ..      LDR      r0,[sp,#0x58]
        0x00000c5e:    2800        .(      CMP      r0,#0
        0x00000c60:    d039        9.      BEQ      0xcd6 ; _fp_digits + 208
        0x00000c62:    4275        uB      RSBS     r5,r6,#0
        0x00000c64:    9a0b        ..      LDR      r2,[sp,#0x2c]
        0x00000c66:    1e29        ).      SUBS     r1,r5,#0
        0x00000c68:    dc00        ..      BGT      0xc6c ; _fp_digits + 102
        0x00000c6a:    9a08        ..      LDR      r2,[sp,#0x20]
        0x00000c6c:    2900        .)      CMP      r1,#0
        0x00000c6e:    da00        ..      BGE      0xc72 ; _fp_digits + 108
        0x00000c70:    4269        iB      RSBS     r1,r5,#0
        0x00000c72:    a803        ..      ADD      r0,sp,#0xc
        0x00000c74:    f000faa6    ....    BL       _btod_etento ; 0x11c4
        0x00000c78:    9906        ..      LDR      r1,[sp,#0x18]
        0x00000c7a:    9807        ..      LDR      r0,[sp,#0x1c]
        0x00000c7c:    f000fb08    ....    BL       _btod_d2e ; 0x1290
        0x00000c80:    9101        ..      STR      r1,[sp,#4]
        0x00000c82:    4601        .F      MOV      r1,r0
        0x00000c84:    48de        .H      LDR      r0,[pc,#888] ; [0x1000] = 0xffffdfe1
        0x00000c86:    9202        ..      STR      r2,[sp,#8]
        0x00000c88:    1809        ..      ADDS     r1,r1,r0
        0x00000c8a:    2d00        .-      CMP      r5,#0
        0x00000c8c:    9100        ..      STR      r1,[sp,#0]
        0x00000c8e:    dd25        %.      BLE      0xcdc ; _fp_digits + 214
        0x00000c90:    49db        .I      LDR      r1,[pc,#876] ; [0x1000] = 0xffffdfe1
        0x00000c92:    9803        ..      LDR      r0,[sp,#0xc]
        0x00000c94:    4249        IB      RSBS     r1,r1,#0
        0x00000c96:    1840        @.      ADDS     r0,r0,r1
        0x00000c98:    9003        ..      STR      r0,[sp,#0xc]
        0x00000c9a:    4668        hF      MOV      r0,sp
        0x00000c9c:    9a08        ..      LDR      r2,[sp,#0x20]
        0x00000c9e:    a903        ..      ADD      r1,sp,#0xc
        0x00000ca0:    f000fd22    ..".    BL       _btod_ediv ; 0x16e8
        0x00000ca4:    e022        ".      B        0xcec ; _fp_digits + 230
        0x00000ca6:    9816        ..      LDR      r0,[sp,#0x58]
        0x00000ca8:    2801        .(      CMP      r0,#1
        0x00000caa:    d002        ..      BEQ      0xcb2 ; _fp_digits + 172
        0x00000cac:    2000        .       MOVS     r0,#0
        0x00000cae:    2130        0!      MOVS     r1,#0x30
        0x00000cb0:    e004        ..      B        0xcbc ; _fp_digits + 182
        0x00000cb2:    2000        .       MOVS     r0,#0
        0x00000cb4:    43f2        .C      MVNS     r2,r6
        0x00000cb6:    e005        ..      B        0xcc4 ; _fp_digits + 190
        0x00000cb8:    5421        !T      STRB     r1,[r4,r0]
        0x00000cba:    1c40        @.      ADDS     r0,r0,#1
        0x00000cbc:    42b0        .B      CMP      r0,r6
        0x00000cbe:    dbfb        ..      BLT      0xcb8 ; _fp_digits + 178
        0x00000cc0:    4630        0F      MOV      r0,r6
        0x00000cc2:    2200        ."      MOVS     r2,#0
        0x00000cc4:    9b16        ..      LDR      r3,[sp,#0x58]
        0x00000cc6:    2100        .!      MOVS     r1,#0
        0x00000cc8:    5421        !T      STRB     r1,[r4,r0]
        0x00000cca:    990d        ..      LDR      r1,[sp,#0x34]
        0x00000ccc:    608b        .`      STR      r3,[r1,#8]
        0x00000cce:    600a        .`      STR      r2,[r1,#0]
        0x00000cd0:    6048        H`      STR      r0,[r1,#4]
        0x00000cd2:    b011        ..      ADD      sp,sp,#0x44
        0x00000cd4:    bdf0        ..      POP      {r4-r7,pc}
        0x00000cd6:    1bbd        ..      SUBS     r5,r7,r6
        0x00000cd8:    1c6d        m.      ADDS     r5,r5,#1
        0x00000cda:    e7c3        ..      B        0xc64 ; _fp_digits + 94
        0x00000cdc:    9903        ..      LDR      r1,[sp,#0xc]
        0x00000cde:    1808        ..      ADDS     r0,r1,r0
        0x00000ce0:    9003        ..      STR      r0,[sp,#0xc]
        0x00000ce2:    4668        hF      MOV      r0,sp
        0x00000ce4:    9a08        ..      LDR      r2,[sp,#0x20]
        0x00000ce6:    a903        ..      ADD      r1,sp,#0xc
        0x00000ce8:    f000fccc    ....    BL       _btod_emul ; 0x1684
        0x00000cec:    9000        ..      STR      r0,[sp,#0]
        0x00000cee:    0400        ..      LSLS     r0,r0,#16
        0x00000cf0:    9202        ..      STR      r2,[sp,#8]
        0x00000cf2:    0c00        ..      LSRS     r0,r0,#16
        0x00000cf4:    9101        ..      STR      r1,[sp,#4]
        0x00000cf6:    d003        ..      BEQ      0xd00 ; _fp_digits + 250
        0x00000cf8:    2000        .       MOVS     r0,#0
        0x00000cfa:    43c0        .C      MVNS     r0,r0
        0x00000cfc:    0841        A.      LSRS     r1,r0,#1
        0x00000cfe:    e000        ..      B        0xd02 ; _fp_digits + 252
        0x00000d00:    4610        .F      MOV      r0,r2
        0x00000d02:    9a16        ..      LDR      r2,[sp,#0x58]
        0x00000d04:    2a00        .*      CMP      r2,#0
        0x00000d06:    d003        ..      BEQ      0xd10 ; _fp_digits + 266
        0x00000d08:    2200        ."      MOVS     r2,#0
        0x00000d0a:    9200        ..      STR      r2,[sp,#0]
        0x00000d0c:    4615        .F      MOV      r5,r2
        0x00000d0e:    e01e        ..      B        0xd4e ; _fp_digits + 328
        0x00000d10:    1e75        u.      SUBS     r5,r6,#1
        0x00000d12:    d405        ..      BMI      0xd20 ; _fp_digits + 282
        0x00000d14:    f000f9d6    ....    BL       _ll_udiv10 ; 0x10c4
        0x00000d18:    3230        02      ADDS     r2,r2,#0x30
        0x00000d1a:    5562        bU      STRB     r2,[r4,r5]
        0x00000d1c:    1e6d        m.      SUBS     r5,r5,#1
        0x00000d1e:    d5f9        ..      BPL      0xd14 ; _fp_digits + 270
        0x00000d20:    2201        ."      MOVS     r2,#1
        0x00000d22:    4308        .C      ORRS     r0,r0,r1
        0x00000d24:    9609        ..      STR      r6,[sp,#0x24]
        0x00000d26:    d002        ..      BEQ      0xd2e ; _fp_digits + 296
        0x00000d28:    2200        ."      MOVS     r2,#0
        0x00000d2a:    1c7f        ..      ADDS     r7,r7,#1
        0x00000d2c:    e004        ..      B        0xd38 ; _fp_digits + 306
        0x00000d2e:    7820         x      LDRB     r0,[r4,#0]
        0x00000d30:    2830        0(      CMP      r0,#0x30
        0x00000d32:    d101        ..      BNE      0xd38 ; _fp_digits + 306
        0x00000d34:    2200        ."      MOVS     r2,#0
        0x00000d36:    1e7f        ..      SUBS     r7,r7,#1
        0x00000d38:    2a00        .*      CMP      r2,#0
        0x00000d3a:    970a        ..      STR      r7,[sp,#0x28]
        0x00000d3c:    d08e        ..      BEQ      0xc5c ; _fp_digits + 86
        0x00000d3e:    e01e        ..      B        0xd7e ; _fp_digits + 376
        0x00000d40:    2d11        .-      CMP      r5,#0x11
        0x00000d42:    da07        ..      BGE      0xd54 ; _fp_digits + 334
        0x00000d44:    f000f9be    ....    BL       _ll_udiv10 ; 0x10c4
        0x00000d48:    3230        02      ADDS     r2,r2,#0x30
        0x00000d4a:    5562        bU      STRB     r2,[r4,r5]
        0x00000d4c:    1c6d        m.      ADDS     r5,r5,#1
        0x00000d4e:    4602        .F      MOV      r2,r0
        0x00000d50:    430a        .C      ORRS     r2,r2,r1
        0x00000d52:    d1f5        ..      BNE      0xd40 ; _fp_digits + 314
        0x00000d54:    4308        .C      ORRS     r0,r0,r1
        0x00000d56:    d10f        ..      BNE      0xd78 ; _fp_digits + 370
        0x00000d58:    2100        .!      MOVS     r1,#0
        0x00000d5a:    1e68        h.      SUBS     r0,r5,#1
        0x00000d5c:    e005        ..      B        0xd6a ; _fp_digits + 356
        0x00000d5e:    5c23        #\      LDRB     r3,[r4,r0]
        0x00000d60:    5c62        b\      LDRB     r2,[r4,r1]
        0x00000d62:    5463        cT      STRB     r3,[r4,r1]
        0x00000d64:    1c49        I.      ADDS     r1,r1,#1
        0x00000d66:    5422        "T      STRB     r2,[r4,r0]
        0x00000d68:    1e40        @.      SUBS     r0,r0,#1
        0x00000d6a:    4281        .B      CMP      r1,r0
        0x00000d6c:    dbf7        ..      BLT      0xd5e ; _fp_digits + 344
        0x00000d6e:    1ba8        ..      SUBS     r0,r5,r6
        0x00000d70:    1e40        @.      SUBS     r0,r0,#1
        0x00000d72:    9509        ..      STR      r5,[sp,#0x24]
        0x00000d74:    900a        ..      STR      r0,[sp,#0x28]
        0x00000d76:    e002        ..      B        0xd7e ; _fp_digits + 376
        0x00000d78:    9800        ..      LDR      r0,[sp,#0]
        0x00000d7a:    2800        .(      CMP      r0,#0
        0x00000d7c:    d00a        ..      BEQ      0xd94 ; _fp_digits + 398
        0x00000d7e:    9a09        ..      LDR      r2,[sp,#0x24]
        0x00000d80:    9916        ..      LDR      r1,[sp,#0x58]
        0x00000d82:    2000        .       MOVS     r0,#0
        0x00000d84:    54a0        .T      STRB     r0,[r4,r2]
        0x00000d86:    980d        ..      LDR      r0,[sp,#0x34]
        0x00000d88:    9b0a        ..      LDR      r3,[sp,#0x28]
        0x00000d8a:    9a09        ..      LDR      r2,[sp,#0x24]
        0x00000d8c:    6003        .`      STR      r3,[r0,#0]
        0x00000d8e:    6042        B`      STR      r2,[r0,#4]
        0x00000d90:    6081        .`      STR      r1,[r0,#8]
        0x00000d92:    e79e        ..      B        0xcd2 ; _fp_digits + 204
        0x00000d94:    2611        .&      MOVS     r6,#0x11
        0x00000d96:    2000        .       MOVS     r0,#0
        0x00000d98:    9016        ..      STR      r0,[sp,#0x58]
        0x00000d9a:    e75f        _.      B        0xc5c ; _fp_digits + 86
    _printf_fp_dec_real
        0x00000d9c:    1dd2        ..      ADDS     r2,r2,#7
        0x00000d9e:    b5f0        ..      PUSH     {r4-r7,lr}
        0x00000da0:    460d        .F      MOV      r5,r1
        0x00000da2:    4604        .F      MOV      r4,r0
        0x00000da4:    08d1        ..      LSRS     r1,r2,#3
        0x00000da6:    b095        ..      SUB      sp,sp,#0x54
        0x00000da8:    00c9        ..      LSLS     r1,r1,#3
        0x00000daa:    c903        ..      LDM      r1,{r0,r1}
        0x00000dac:    9010        ..      STR      r0,[sp,#0x40]
        0x00000dae:    9111        ..      STR      r1,[sp,#0x44]
        0x00000db0:    f000fd52    ..R.    BL       __ARM_fpclassify ; 0x1858
        0x00000db4:    4602        .F      MOV      r2,r0
        0x00000db6:    9811        ..      LDR      r0,[sp,#0x44]
        0x00000db8:    0fc1        ..      LSRS     r1,r0,#31
        0x00000dba:    202d        -       MOVS     r0,#0x2d
        0x00000dbc:    2900        .)      CMP      r1,#0
        0x00000dbe:    d106        ..      BNE      0xdce ; _printf_fp_dec_real + 50
        0x00000dc0:    6821        !h      LDR      r1,[r4,#0]
        0x00000dc2:    202b        +       MOVS     r0,#0x2b
        0x00000dc4:    078b        ..      LSLS     r3,r1,#30
        0x00000dc6:    d402        ..      BMI      0xdce ; _printf_fp_dec_real + 50
        0x00000dc8:    0748        H.      LSLS     r0,r1,#29
        0x00000dca:    0fc0        ..      LSRS     r0,r0,#31
        0x00000dcc:    0140        @.      LSLS     r0,r0,#5
        0x00000dce:    2a03        .*      CMP      r2,#3
        0x00000dd0:    900f        ..      STR      r0,[sp,#0x3c]
        0x00000dd2:    d001        ..      BEQ      0xdd8 ; _printf_fp_dec_real + 60
        0x00000dd4:    2a07        .*      CMP      r2,#7
        0x00000dd6:    db05        ..      BLT      0xde4 ; _printf_fp_dec_real + 72
        0x00000dd8:    4603        .F      MOV      r3,r0
        0x00000dda:    4629        )F      MOV      r1,r5
        0x00000ddc:    4620         F      MOV      r0,r4
        0x00000dde:    f000f9af    ....    BL       _printf_fp_infnan ; 0x1140
        0x00000de2:    e105        ..      B        0xff0 ; _printf_fp_dec_real + 596
        0x00000de4:    6820         h      LDR      r0,[r4,#0]
        0x00000de6:    0680        ..      LSLS     r0,r0,#26
        0x00000de8:    d501        ..      BPL      0xdee ; _printf_fp_dec_real + 82
        0x00000dea:    69e7        .i      LDR      r7,[r4,#0x1c]
        0x00000dec:    e000        ..      B        0xdf0 ; _printf_fp_dec_real + 84
        0x00000dee:    2706        .'      MOVS     r7,#6
        0x00000df0:    4628        (F      MOV      r0,r5
        0x00000df2:    2311        .#      MOVS     r3,#0x11
        0x00000df4:    2d65        e-      CMP      r5,#0x65
        0x00000df6:    d004        ..      BEQ      0xe02 ; _printf_fp_dec_real + 102
        0x00000df8:    2866        f(      CMP      r0,#0x66
        0x00000dfa:    d00f        ..      BEQ      0xe1c ; _printf_fp_dec_real + 128
        0x00000dfc:    2d67        g-      CMP      r5,#0x67
        0x00000dfe:    d161        a.      BNE      0xec4 ; _printf_fp_dec_real + 296
        0x00000e00:    e027        '.      B        0xe52 ; _printf_fp_dec_real + 182
        0x00000e02:    2000        .       MOVS     r0,#0
        0x00000e04:    2f11        ./      CMP      r7,#0x11
        0x00000e06:    9000        ..      STR      r0,[sp,#0]
        0x00000e08:    da00        ..      BGE      0xe0c ; _printf_fp_dec_real + 112
        0x00000e0a:    1c7b        {.      ADDS     r3,r7,#1
        0x00000e0c:    aa10        ..      ADD      r2,sp,#0x40
        0x00000e0e:    a903        ..      ADD      r1,sp,#0xc
        0x00000e10:    a80b        ..      ADD      r0,sp,#0x2c
        0x00000e12:    f7fffef8    ....    BL       _fp_digits ; 0xc06
        0x00000e16:    2600        .&      MOVS     r6,#0
        0x00000e18:    1c7d        }.      ADDS     r5,r7,#1
        0x00000e1a:    e03e        >.      B        0xe9a ; _printf_fp_dec_real + 254
        0x00000e1c:    2001        .       MOVS     r0,#1
        0x00000e1e:    463b        ;F      MOV      r3,r7
        0x00000e20:    aa10        ..      ADD      r2,sp,#0x40
        0x00000e22:    07c0        ..      LSLS     r0,r0,#31
        0x00000e24:    900e        ..      STR      r0,[sp,#0x38]
        0x00000e26:    2001        .       MOVS     r0,#1
        0x00000e28:    9000        ..      STR      r0,[sp,#0]
        0x00000e2a:    a903        ..      ADD      r1,sp,#0xc
        0x00000e2c:    a80b        ..      ADD      r0,sp,#0x2c
        0x00000e2e:    f7fffeea    ....    BL       _fp_digits ; 0xc06
        0x00000e32:    980d        ..      LDR      r0,[sp,#0x34]
        0x00000e34:    9d0c        ..      LDR      r5,[sp,#0x30]
        0x00000e36:    2600        .&      MOVS     r6,#0
        0x00000e38:    2800        .(      CMP      r0,#0
        0x00000e3a:    d102        ..      BNE      0xe42 ; _printf_fp_dec_real + 166
        0x00000e3c:    990b        ..      LDR      r1,[sp,#0x2c]
        0x00000e3e:    1c78        x.      ADDS     r0,r7,#1
        0x00000e40:    180d        ..      ADDS     r5,r1,r0
        0x00000e42:    1b78        x.      SUBS     r0,r7,r5
        0x00000e44:    d402        ..      BMI      0xe4c ; _printf_fp_dec_real + 176
        0x00000e46:    4246        FB      RSBS     r6,r0,#0
        0x00000e48:    1e76        v.      SUBS     r6,r6,#1
        0x00000e4a:    1c7d        }.      ADDS     r5,r7,#1
        0x00000e4c:    1be8        ..      SUBS     r0,r5,r7
        0x00000e4e:    9000        ..      STR      r0,[sp,#0]
        0x00000e50:    e038        8.      B        0xec4 ; _printf_fp_dec_real + 296
        0x00000e52:    2f01        ./      CMP      r7,#1
        0x00000e54:    da00        ..      BGE      0xe58 ; _printf_fp_dec_real + 188
        0x00000e56:    2701        .'      MOVS     r7,#1
        0x00000e58:    2000        .       MOVS     r0,#0
        0x00000e5a:    2f11        ./      CMP      r7,#0x11
        0x00000e5c:    9000        ..      STR      r0,[sp,#0]
        0x00000e5e:    dc00        ..      BGT      0xe62 ; _printf_fp_dec_real + 198
        0x00000e60:    463b        ;F      MOV      r3,r7
        0x00000e62:    aa10        ..      ADD      r2,sp,#0x40
        0x00000e64:    a903        ..      ADD      r1,sp,#0xc
        0x00000e66:    a80b        ..      ADD      r0,sp,#0x2c
        0x00000e68:    f7fffecd    ....    BL       _fp_digits ; 0xc06
        0x00000e6c:    6820         h      LDR      r0,[r4,#0]
        0x00000e6e:    463d        =F      MOV      r5,r7
        0x00000e70:    2600        .&      MOVS     r6,#0
        0x00000e72:    0700        ..      LSLS     r0,r0,#28
        0x00000e74:    d40b        ..      BMI      0xe8e ; _printf_fp_dec_real + 242
        0x00000e76:    980c        ..      LDR      r0,[sp,#0x30]
        0x00000e78:    42a8        .B      CMP      r0,r5
        0x00000e7a:    da00        ..      BGE      0xe7e ; _printf_fp_dec_real + 226
        0x00000e7c:    4605        .F      MOV      r5,r0
        0x00000e7e:    a803        ..      ADD      r0,sp,#0xc
        0x00000e80:    2d01        .-      CMP      r5,#1
        0x00000e82:    dd04        ..      BLE      0xe8e ; _printf_fp_dec_real + 242
        0x00000e84:    1941        A.      ADDS     r1,r0,r5
        0x00000e86:    3920         9      SUBS     r1,r1,#0x20
        0x00000e88:    7fc9        ..      LDRB     r1,[r1,#0x1f]
        0x00000e8a:    2930        0)      CMP      r1,#0x30
        0x00000e8c:    d009        ..      BEQ      0xea2 ; _printf_fp_dec_real + 262
        0x00000e8e:    980b        ..      LDR      r0,[sp,#0x2c]
        0x00000e90:    42b8        .B      CMP      r0,r7
        0x00000e92:    da02        ..      BGE      0xe9a ; _printf_fp_dec_real + 254
        0x00000e94:    4601        .F      MOV      r1,r0
        0x00000e96:    1d00        ..      ADDS     r0,r0,#4
        0x00000e98:    da05        ..      BGE      0xea6 ; _printf_fp_dec_real + 266
        0x00000e9a:    2001        .       MOVS     r0,#1
        0x00000e9c:    9000        ..      STR      r0,[sp,#0]
        0x00000e9e:    980b        ..      LDR      r0,[sp,#0x2c]
        0x00000ea0:    e00f        ..      B        0xec2 ; _printf_fp_dec_real + 294
        0x00000ea2:    1e6d        m.      SUBS     r5,r5,#1
        0x00000ea4:    e7ec        ..      B        0xe80 ; _printf_fp_dec_real + 228
        0x00000ea6:    2900        .)      CMP      r1,#0
        0x00000ea8:    dc02        ..      BGT      0xeb0 ; _printf_fp_dec_real + 276
        0x00000eaa:    198e        ..      ADDS     r6,r1,r6
        0x00000eac:    1a6d        m.      SUBS     r5,r5,r1
        0x00000eae:    e003        ..      B        0xeb8 ; _printf_fp_dec_real + 284
        0x00000eb0:    1c48        H.      ADDS     r0,r1,#1
        0x00000eb2:    42a8        .B      CMP      r0,r5
        0x00000eb4:    dd00        ..      BLE      0xeb8 ; _printf_fp_dec_real + 284
        0x00000eb6:    1c4d        M.      ADDS     r5,r1,#1
        0x00000eb8:    1b88        ..      SUBS     r0,r1,r6
        0x00000eba:    1c40        @.      ADDS     r0,r0,#1
        0x00000ebc:    9000        ..      STR      r0,[sp,#0]
        0x00000ebe:    2001        .       MOVS     r0,#1
        0x00000ec0:    07c0        ..      LSLS     r0,r0,#31
        0x00000ec2:    900e        ..      STR      r0,[sp,#0x38]
        0x00000ec4:    6820         h      LDR      r0,[r4,#0]
        0x00000ec6:    0700        ..      LSLS     r0,r0,#28
        0x00000ec8:    d405        ..      BMI      0xed6 ; _printf_fp_dec_real + 314
        0x00000eca:    9800        ..      LDR      r0,[sp,#0]
        0x00000ecc:    42a8        .B      CMP      r0,r5
        0x00000ece:    db02        ..      BLT      0xed6 ; _printf_fp_dec_real + 314
        0x00000ed0:    2000        .       MOVS     r0,#0
        0x00000ed2:    43c0        .C      MVNS     r0,r0
        0x00000ed4:    9000        ..      STR      r0,[sp,#0]
        0x00000ed6:    4669        iF      MOV      r1,sp
        0x00000ed8:    2000        .       MOVS     r0,#0
        0x00000eda:    72c8        .r      STRB     r0,[r1,#0xb]
        0x00000edc:    980e        ..      LDR      r0,[sp,#0x38]
        0x00000ede:    2101        .!      MOVS     r1,#1
        0x00000ee0:    af02        ..      ADD      r7,sp,#8
        0x00000ee2:    3703        .7      ADDS     r7,#3
        0x00000ee4:    07c9        ..      LSLS     r1,r1,#31
        0x00000ee6:    4288        .B      CMP      r0,r1
        0x00000ee8:    d024        $.      BEQ      0xf34 ; _printf_fp_dec_real + 408
        0x00000eea:    2002        .       MOVS     r0,#2
        0x00000eec:    9012        ..      STR      r0,[sp,#0x48]
        0x00000eee:    202b        +       MOVS     r0,#0x2b
        0x00000ef0:    9013        ..      STR      r0,[sp,#0x4c]
        0x00000ef2:    980e        ..      LDR      r0,[sp,#0x38]
        0x00000ef4:    2800        .(      CMP      r0,#0
        0x00000ef6:    da0b        ..      BGE      0xf10 ; _printf_fp_dec_real + 372
        0x00000ef8:    4240        @B      RSBS     r0,r0,#0
        0x00000efa:    900e        ..      STR      r0,[sp,#0x38]
        0x00000efc:    202d        -       MOVS     r0,#0x2d
        0x00000efe:    9013        ..      STR      r0,[sp,#0x4c]
        0x00000f00:    e006        ..      B        0xf10 ; _printf_fp_dec_real + 372
        0x00000f02:    980e        ..      LDR      r0,[sp,#0x38]
        0x00000f04:    f000f8c6    ....    BL       __rt_udiv10 ; 0x1094
        0x00000f08:    3130        01      ADDS     r1,r1,#0x30
        0x00000f0a:    1e7f        ..      SUBS     r7,r7,#1
        0x00000f0c:    900e        ..      STR      r0,[sp,#0x38]
        0x00000f0e:    7039        9p      STRB     r1,[r7,#0]
        0x00000f10:    9912        ..      LDR      r1,[sp,#0x48]
        0x00000f12:    1e48        H.      SUBS     r0,r1,#1
        0x00000f14:    2900        .)      CMP      r1,#0
        0x00000f16:    9012        ..      STR      r0,[sp,#0x48]
        0x00000f18:    dcf3        ..      BGT      0xf02 ; _printf_fp_dec_real + 358
        0x00000f1a:    980e        ..      LDR      r0,[sp,#0x38]
        0x00000f1c:    2800        .(      CMP      r0,#0
        0x00000f1e:    d1f0        ..      BNE      0xf02 ; _printf_fp_dec_real + 358
        0x00000f20:    9813        ..      LDR      r0,[sp,#0x4c]
        0x00000f22:    1e7f        ..      SUBS     r7,r7,#1
        0x00000f24:    7038        8p      STRB     r0,[r7,#0]
        0x00000f26:    6821        !h      LDR      r1,[r4,#0]
        0x00000f28:    2045        E       MOVS     r0,#0x45
        0x00000f2a:    0509        ..      LSLS     r1,r1,#20
        0x00000f2c:    d400        ..      BMI      0xf30 ; _printf_fp_dec_real + 404
        0x00000f2e:    2065        e       MOVS     r0,#0x65
        0x00000f30:    1e7f        ..      SUBS     r7,r7,#1
        0x00000f32:    7038        8p      STRB     r0,[r7,#0]
        0x00000f34:    a801        ..      ADD      r0,sp,#4
        0x00000f36:    1bc0        ..      SUBS     r0,r0,r7
        0x00000f38:    1dc0        ..      ADDS     r0,r0,#7
        0x00000f3a:    900e        ..      STR      r0,[sp,#0x38]
        0x00000f3c:    980f        ..      LDR      r0,[sp,#0x3c]
        0x00000f3e:    2800        .(      CMP      r0,#0
        0x00000f40:    d000        ..      BEQ      0xf44 ; _printf_fp_dec_real + 424
        0x00000f42:    2001        .       MOVS     r0,#1
        0x00000f44:    1941        A.      ADDS     r1,r0,r5
        0x00000f46:    9800        ..      LDR      r0,[sp,#0]
        0x00000f48:    17c0        ..      ASRS     r0,r0,#31
        0x00000f4a:    1809        ..      ADDS     r1,r1,r0
        0x00000f4c:    980e        ..      LDR      r0,[sp,#0x38]
        0x00000f4e:    1808        ..      ADDS     r0,r1,r0
        0x00000f50:    69a1        .i      LDR      r1,[r4,#0x18]
        0x00000f52:    1a08        ..      SUBS     r0,r1,r0
        0x00000f54:    1e40        @.      SUBS     r0,r0,#1
        0x00000f56:    61a0        .a      STR      r0,[r4,#0x18]
        0x00000f58:    6820         h      LDR      r0,[r4,#0]
        0x00000f5a:    06c0        ..      LSLS     r0,r0,#27
        0x00000f5c:    d402        ..      BMI      0xf64 ; _printf_fp_dec_real + 456
        0x00000f5e:    4620         F      MOV      r0,r4
        0x00000f60:    f7fffb52    ..R.    BL       _printf_pre_padding ; 0x608
        0x00000f64:    980f        ..      LDR      r0,[sp,#0x3c]
        0x00000f66:    2800        .(      CMP      r0,#0
        0x00000f68:    d005        ..      BEQ      0xf76 ; _printf_fp_dec_real + 474
        0x00000f6a:    6862        bh      LDR      r2,[r4,#4]
        0x00000f6c:    68a1        .h      LDR      r1,[r4,#8]
        0x00000f6e:    4790        .G      BLX      r2
        0x00000f70:    6a20         j      LDR      r0,[r4,#0x20]
        0x00000f72:    1c40        @.      ADDS     r0,r0,#1
        0x00000f74:    6220         b      STR      r0,[r4,#0x20]
        0x00000f76:    6820         h      LDR      r0,[r4,#0]
        0x00000f78:    06c0        ..      LSLS     r0,r0,#27
        0x00000f7a:    d524        $.      BPL      0xfc6 ; _printf_fp_dec_real + 554
        0x00000f7c:    4620         F      MOV      r0,r4
        0x00000f7e:    f7fffb43    ..C.    BL       _printf_pre_padding ; 0x608
        0x00000f82:    e020         .      B        0xfc6 ; _printf_fp_dec_real + 554
        0x00000f84:    2e00        ..      CMP      r6,#0
        0x00000f86:    db07        ..      BLT      0xf98 ; _printf_fp_dec_real + 508
        0x00000f88:    980c        ..      LDR      r0,[sp,#0x30]
        0x00000f8a:    42b0        .B      CMP      r0,r6
        0x00000f8c:    dd04        ..      BLE      0xf98 ; _printf_fp_dec_real + 508
        0x00000f8e:    a803        ..      ADD      r0,sp,#0xc
        0x00000f90:    6862        bh      LDR      r2,[r4,#4]
        0x00000f92:    5d80        .]      LDRB     r0,[r0,r6]
        0x00000f94:    68a1        .h      LDR      r1,[r4,#8]
        0x00000f96:    e002        ..      B        0xf9e ; _printf_fp_dec_real + 514
        0x00000f98:    6862        bh      LDR      r2,[r4,#4]
        0x00000f9a:    68a1        .h      LDR      r1,[r4,#8]
        0x00000f9c:    2030        0       MOVS     r0,#0x30
        0x00000f9e:    4790        .G      BLX      r2
        0x00000fa0:    6a20         j      LDR      r0,[r4,#0x20]
        0x00000fa2:    1c76        v.      ADDS     r6,r6,#1
        0x00000fa4:    1c40        @.      ADDS     r0,r0,#1
        0x00000fa6:    6220         b      STR      r0,[r4,#0x20]
        0x00000fa8:    9800        ..      LDR      r0,[sp,#0]
        0x00000faa:    1e40        @.      SUBS     r0,r0,#1
        0x00000fac:    9000        ..      STR      r0,[sp,#0]
        0x00000fae:    d10a        ..      BNE      0xfc6 ; _printf_fp_dec_real + 554
        0x00000fb0:    f000f884    ....    BL       __rt_locale ; 0x10bc
        0x00000fb4:    68c0        .h      LDR      r0,[r0,#0xc]
        0x00000fb6:    6862        bh      LDR      r2,[r4,#4]
        0x00000fb8:    6801        .h      LDR      r1,[r0,#0]
        0x00000fba:    5c40        @\      LDRB     r0,[r0,r1]
        0x00000fbc:    68a1        .h      LDR      r1,[r4,#8]
        0x00000fbe:    4790        .G      BLX      r2
        0x00000fc0:    6a20         j      LDR      r0,[r4,#0x20]
        0x00000fc2:    1c40        @.      ADDS     r0,r0,#1
        0x00000fc4:    6220         b      STR      r0,[r4,#0x20]
        0x00000fc6:    4628        (F      MOV      r0,r5
        0x00000fc8:    1e6d        m.      SUBS     r5,r5,#1
        0x00000fca:    2800        .(      CMP      r0,#0
        0x00000fcc:    dcda        ..      BGT      0xf84 ; _printf_fp_dec_real + 488
        0x00000fce:    e007        ..      B        0xfe0 ; _printf_fp_dec_real + 580
        0x00000fd0:    6862        bh      LDR      r2,[r4,#4]
        0x00000fd2:    7838        8x      LDRB     r0,[r7,#0]
        0x00000fd4:    68a1        .h      LDR      r1,[r4,#8]
        0x00000fd6:    1c7f        ..      ADDS     r7,r7,#1
        0x00000fd8:    4790        .G      BLX      r2
        0x00000fda:    6a20         j      LDR      r0,[r4,#0x20]
        0x00000fdc:    1c40        @.      ADDS     r0,r0,#1
        0x00000fde:    6220         b      STR      r0,[r4,#0x20]
        0x00000fe0:    990e        ..      LDR      r1,[sp,#0x38]
        0x00000fe2:    1e48        H.      SUBS     r0,r1,#1
        0x00000fe4:    2900        .)      CMP      r1,#0
        0x00000fe6:    900e        ..      STR      r0,[sp,#0x38]
        0x00000fe8:    dcf2        ..      BGT      0xfd0 ; _printf_fp_dec_real + 564
        0x00000fea:    4620         F      MOV      r0,r4
        0x00000fec:    f7fffb21    ..!.    BL       _printf_post_padding ; 0x632
        0x00000ff0:    b015        ..      ADD      sp,sp,#0x54
        0x00000ff2:    2002        .       MOVS     r0,#2
        0x00000ff4:    bdf0        ..      POP      {r4-r7,pc}
    $d
        0x00000ff6:    0000        ..      DCW    0
        0x00000ff8:    fffffc01    ....    DCD    4294966273
        0x00000ffc:    00004d10    .M..    DCD    19728
        0x00001000:    ffffdfe1    ....    DCD    4294959073
    $t
    .text
    _printf_input_char
        0x00001004:    6901        .i      LDR      r1,[r0,#0x10]
        0x00001006:    1c4a        J.      ADDS     r2,r1,#1
        0x00001008:    6102        .a      STR      r2,[r0,#0x10]
        0x0000100a:    7808        .x      LDRB     r0,[r1,#0]
        0x0000100c:    4770        pG      BX       lr
    _printf_char_common
        0x0000100e:    b500        ..      PUSH     {lr}
        0x00001010:    b08f        ..      SUB      sp,sp,#0x3c
        0x00001012:    9102        ..      STR      r1,[sp,#8]
        0x00001014:    2100        .!      MOVS     r1,#0
        0x00001016:    9105        ..      STR      r1,[sp,#0x14]
        0x00001018:    4905        .I      LDR      r1,[pc,#20] ; [0x1030] = 0xffffffe5
        0x0000101a:    9301        ..      STR      r3,[sp,#4]
        0x0000101c:    4479        yD      ADD      r1,r1,pc
        0x0000101e:    9103        ..      STR      r1,[sp,#0xc]
        0x00001020:    4611        .F      MOV      r1,r2
        0x00001022:    9004        ..      STR      r0,[sp,#0x10]
        0x00001024:    4668        hF      MOV      r0,sp
        0x00001026:    f7fffbb7    ....    BL       __printf ; 0x798
        0x0000102a:    b00f        ..      ADD      sp,sp,#0x3c
        0x0000102c:    bd00        ..      POP      {pc}
    $d
        0x0000102e:    0000        ..      DCW    0
        0x00001030:    ffffffe5    ....    DCD    4294967269
    $t
    .text
    _sputc
        0x00001034:    680a        .h      LDR      r2,[r1,#0]
        0x00001036:    7010        .p      STRB     r0,[r2,#0]
        0x00001038:    1c52        R.      ADDS     r2,r2,#1
        0x0000103a:    600a        .`      STR      r2,[r1,#0]
        0x0000103c:    4770        pG      BX       lr
    .text
    _printf_cs_common
        0x0000103e:    b510        ..      PUSH     {r4,lr}
        0x00001040:    6943        Ci      LDR      r3,[r0,#0x14]
        0x00001042:    2b00        .+      CMP      r3,#0
        0x00001044:    d002        ..      BEQ      0x104c ; _printf_cs_common + 14
        0x00001046:    46c0        .F      MOV      r8,r8
        0x00001048:    46c0        .F      MOV      r8,r8
        0x0000104a:    e001        ..      B        0x1050 ; _printf_cs_common + 18
        0x0000104c:    f7fffb02    ....    BL       _printf_str ; 0x654
        0x00001050:    2001        .       MOVS     r0,#1
        0x00001052:    bd10        ..      POP      {r4,pc}
    _printf_char
        0x00001054:    6812        .h      LDR      r2,[r2,#0]
        0x00001056:    4601        .F      MOV      r1,r0
        0x00001058:    3124        $1      ADDS     r1,r1,#0x24
        0x0000105a:    700a        .p      STRB     r2,[r1,#0]
        0x0000105c:    2200        ."      MOVS     r2,#0
        0x0000105e:    704a        Jp      STRB     r2,[r1,#1]
        0x00001060:    2201        ."      MOVS     r2,#1
        0x00001062:    e7ec        ..      B        _printf_cs_common ; 0x103e
    _printf_string
        0x00001064:    6811        .h      LDR      r1,[r2,#0]
        0x00001066:    2200        ."      MOVS     r2,#0
        0x00001068:    43d2        .C      MVNS     r2,r2
        0x0000106a:    e7e8        ..      B        _printf_cs_common ; 0x103e
    .text
    _printf_char_file
        0x0000106c:    4b08        .K      LDR      r3,[pc,#32] ; [0x1090] = 0xfffff187
        0x0000106e:    b570        p.      PUSH     {r4-r6,lr}
        0x00001070:    460c        .F      MOV      r4,r1
        0x00001072:    447b        {D      ADD      r3,r3,pc
        0x00001074:    f7ffffcb    ....    BL       _printf_char_common ; 0x100e
        0x00001078:    4605        .F      MOV      r5,r0
        0x0000107a:    4620         F      MOV      r0,r4
        0x0000107c:    f7fff8c6    ....    BL       ferror ; 0x20c
        0x00001080:    2800        .(      CMP      r0,#0
        0x00001082:    d002        ..      BEQ      0x108a ; _printf_char_file + 30
        0x00001084:    2000        .       MOVS     r0,#0
        0x00001086:    43c0        .C      MVNS     r0,r0
        0x00001088:    bd70        p.      POP      {r4-r6,pc}
        0x0000108a:    4628        (F      MOV      r0,r5
        0x0000108c:    bd70        p.      POP      {r4-r6,pc}
    $d
        0x0000108e:    0000        ..      DCW    0
        0x00001090:    fffff187    ....    DCD    4294963591
    $t
    .text
    __rt_udiv10
        0x00001094:    4601        .F      MOV      r1,r0
        0x00001096:    0880        ..      LSRS     r0,r0,#2
        0x00001098:    1a08        ..      SUBS     r0,r1,r0
        0x0000109a:    0902        ..      LSRS     r2,r0,#4
        0x0000109c:    1810        ..      ADDS     r0,r2,r0
        0x0000109e:    0a02        ..      LSRS     r2,r0,#8
        0x000010a0:    1810        ..      ADDS     r0,r2,r0
        0x000010a2:    0c02        ..      LSRS     r2,r0,#16
        0x000010a4:    1810        ..      ADDS     r0,r2,r0
        0x000010a6:    08c0        ..      LSRS     r0,r0,#3
        0x000010a8:    0082        ..      LSLS     r2,r0,#2
        0x000010aa:    1812        ..      ADDS     r2,r2,r0
        0x000010ac:    0052        R.      LSLS     r2,r2,#1
        0x000010ae:    1a89        ..      SUBS     r1,r1,r2
        0x000010b0:    e001        ..      B        0x10b6 ; __rt_udiv10 + 34
        0x000010b2:    390a        .9      SUBS     r1,r1,#0xa
        0x000010b4:    1c40        @.      ADDS     r0,r0,#1
        0x000010b6:    290a        .)      CMP      r1,#0xa
        0x000010b8:    d2fb        ..      BCS      0x10b2 ; __rt_udiv10 + 30
        0x000010ba:    4770        pG      BX       lr
    .text
    __rt_locale
        0x000010bc:    4800        .H      LDR      r0,[pc,#0] ; [0x10c0] = 0x20000024
        0x000010be:    4770        pG      BX       lr
    $d
        0x000010c0:    20000024    $..     DCD    536870948
    $t
    .text
    _ll_udiv10
        0x000010c4:    460b        .F      MOV      r3,r1
        0x000010c6:    b570        p.      PUSH     {r4-r6,lr}
        0x000010c8:    4602        .F      MOV      r2,r0
        0x000010ca:    461d        .F      MOV      r5,r3
        0x000010cc:    0789        ..      LSLS     r1,r1,#30
        0x000010ce:    0880        ..      LSRS     r0,r0,#2
        0x000010d0:    4308        .C      ORRS     r0,r0,r1
        0x000010d2:    089c        ..      LSRS     r4,r3,#2
        0x000010d4:    1a11        ..      SUBS     r1,r2,r0
        0x000010d6:    41a5        .A      SBCS     r5,r5,r4
        0x000010d8:    090c        ..      LSRS     r4,r1,#4
        0x000010da:    0728        (.      LSLS     r0,r5,#28
        0x000010dc:    4304        .C      ORRS     r4,r4,r0
        0x000010de:    0928        (.      LSRS     r0,r5,#4
        0x000010e0:    1864        d.      ADDS     r4,r4,r1
        0x000010e2:    4168        hA      ADCS     r0,r0,r5
        0x000010e4:    0a25        %.      LSRS     r5,r4,#8
        0x000010e6:    0601        ..      LSLS     r1,r0,#24
        0x000010e8:    430d        .C      ORRS     r5,r5,r1
        0x000010ea:    0a01        ..      LSRS     r1,r0,#8
        0x000010ec:    192c        ,.      ADDS     r4,r5,r4
        0x000010ee:    4141        AA      ADCS     r1,r1,r0
        0x000010f0:    0c20         .      LSRS     r0,r4,#16
        0x000010f2:    040d        ..      LSLS     r5,r1,#16
        0x000010f4:    4328        (C      ORRS     r0,r0,r5
        0x000010f6:    0c0d        ..      LSRS     r5,r1,#16
        0x000010f8:    1900        ..      ADDS     r0,r0,r4
        0x000010fa:    414d        MA      ADCS     r5,r5,r1
        0x000010fc:    2100        .!      MOVS     r1,#0
        0x000010fe:    1940        @.      ADDS     r0,r0,r5
        0x00001100:    414d        MA      ADCS     r5,r5,r1
        0x00001102:    08c0        ..      LSRS     r0,r0,#3
        0x00001104:    0769        i.      LSLS     r1,r5,#29
        0x00001106:    4308        .C      ORRS     r0,r0,r1
        0x00001108:    08e9        ..      LSRS     r1,r5,#3
        0x0000110a:    0f84        ..      LSRS     r4,r0,#30
        0x0000110c:    008d        ..      LSLS     r5,r1,#2
        0x0000110e:    4325        %C      ORRS     r5,r5,r4
        0x00001110:    0084        ..      LSLS     r4,r0,#2
        0x00001112:    1824        $.      ADDS     r4,r4,r0
        0x00001114:    414d        MA      ADCS     r5,r5,r1
        0x00001116:    1924        $.      ADDS     r4,r4,r4
        0x00001118:    416d        mA      ADCS     r5,r5,r5
        0x0000111a:    1b12        ..      SUBS     r2,r2,r4
        0x0000111c:    41ab        .A      SBCS     r3,r3,r5
        0x0000111e:    e007        ..      B        0x1130 ; _ll_udiv10 + 108
        0x00001120:    2509        .%      MOVS     r5,#9
        0x00001122:    43ed        .C      MVNS     r5,r5
        0x00001124:    112c        ,.      ASRS     r4,r5,#4
        0x00001126:    1952        R.      ADDS     r2,r2,r5
        0x00001128:    4163        cA      ADCS     r3,r3,r4
        0x0000112a:    2400        .$      MOVS     r4,#0
        0x0000112c:    1c40        @.      ADDS     r0,r0,#1
        0x0000112e:    4161        aA      ADCS     r1,r1,r4
        0x00001130:    461c        .F      MOV      r4,r3
        0x00001132:    250a        .%      MOVS     r5,#0xa
        0x00001134:    2600        .&      MOVS     r6,#0
        0x00001136:    1b55        U.      SUBS     r5,r2,r5
        0x00001138:    41b4        .A      SBCS     r4,r4,r6
        0x0000113a:    d2f1        ..      BCS      0x1120 ; _ll_udiv10 + 92
        0x0000113c:    bd70        p.      POP      {r4-r6,pc}
        0x0000113e:    0000        ..      MOVS     r0,r0
    .text
    _printf_fp_infnan
        0x00001140:    b5f8        ..      PUSH     {r3-r7,lr}
        0x00001142:    4604        .F      MOV      r4,r0
        0x00001144:    461f        .F      MOV      r7,r3
        0x00001146:    2301        .#      MOVS     r3,#1
        0x00001148:    6800        .h      LDR      r0,[r0,#0]
        0x0000114a:    02db        ..      LSLS     r3,r3,#11
        0x0000114c:    2603        .&      MOVS     r6,#3
        0x0000114e:    4601        .F      MOV      r1,r0
        0x00001150:    4018        .@      ANDS     r0,r0,r3
        0x00001152:    2a07        .*      CMP      r2,#7
        0x00001154:    db04        ..      BLT      0x1160 ; _printf_fp_infnan + 32
        0x00001156:    2800        .(      CMP      r0,#0
        0x00001158:    a516        ..      ADR      r5,{pc}+0x5c ; 0x11b4
        0x0000115a:    d105        ..      BNE      0x1168 ; _printf_fp_infnan + 40
        0x0000115c:    a516        ..      ADR      r5,{pc}+0x5c ; 0x11b8
        0x0000115e:    e003        ..      B        0x1168 ; _printf_fp_infnan + 40
        0x00001160:    2800        .(      CMP      r0,#0
        0x00001162:    a516        ..      ADR      r5,{pc}+0x5a ; 0x11bc
        0x00001164:    d100        ..      BNE      0x1168 ; _printf_fp_infnan + 40
        0x00001166:    a516        ..      ADR      r5,{pc}+0x5a ; 0x11c0
        0x00001168:    2010        .       MOVS     r0,#0x10
        0x0000116a:    4381        .C      BICS     r1,r1,r0
        0x0000116c:    6021        !`      STR      r1,[r4,#0]
        0x0000116e:    69a0        .i      LDR      r0,[r4,#0x18]
        0x00001170:    1ec0        ..      SUBS     r0,r0,#3
        0x00001172:    2f00        ./      CMP      r7,#0
        0x00001174:    61a0        .a      STR      r0,[r4,#0x18]
        0x00001176:    d001        ..      BEQ      0x117c ; _printf_fp_infnan + 60
        0x00001178:    1e40        @.      SUBS     r0,r0,#1
        0x0000117a:    61a0        .a      STR      r0,[r4,#0x18]
        0x0000117c:    4620         F      MOV      r0,r4
        0x0000117e:    f7fffa43    ..C.    BL       _printf_pre_padding ; 0x608
        0x00001182:    2f00        ./      CMP      r7,#0
        0x00001184:    d009        ..      BEQ      0x119a ; _printf_fp_infnan + 90
        0x00001186:    4638        8F      MOV      r0,r7
        0x00001188:    6862        bh      LDR      r2,[r4,#4]
        0x0000118a:    68a1        .h      LDR      r1,[r4,#8]
        0x0000118c:    4790        .G      BLX      r2
        0x0000118e:    6a20         j      LDR      r0,[r4,#0x20]
        0x00001190:    1c40        @.      ADDS     r0,r0,#1
        0x00001192:    6220         b      STR      r0,[r4,#0x20]
        0x00001194:    1cc0        ..      ADDS     r0,r0,#3
        0x00001196:    6220         b      STR      r0,[r4,#0x20]
        0x00001198:    e006        ..      B        0x11a8 ; _printf_fp_infnan + 104
        0x0000119a:    6a20         j      LDR      r0,[r4,#0x20]
        0x0000119c:    e7fa        ..      B        0x1194 ; _printf_fp_infnan + 84
        0x0000119e:    6862        bh      LDR      r2,[r4,#4]
        0x000011a0:    7828        (x      LDRB     r0,[r5,#0]
        0x000011a2:    68a1        .h      LDR      r1,[r4,#8]
        0x000011a4:    1c6d        m.      ADDS     r5,r5,#1
        0x000011a6:    4790        .G      BLX      r2
        0x000011a8:    1e76        v.      SUBS     r6,r6,#1
        0x000011aa:    d2f8        ..      BCS      0x119e ; _printf_fp_infnan + 94
        0x000011ac:    4620         F      MOV      r0,r4
        0x000011ae:    f7fffa40    ..@.    BL       _printf_post_padding ; 0x632
        0x000011b2:    bdf8        ..      POP      {r3-r7,pc}
    $d
        0x000011b4:    004e414e    NAN.    DCD    5128526
        0x000011b8:    006e616e    nan.    DCD    7233902
        0x000011bc:    00464e49    INF.    DCD    4607561
        0x000011c0:    00666e69    inf.    DCD    6712937
    $t
    .text
    _btod_etento
        0x000011c4:    b5f7        ..      PUSH     {r0-r2,r4-r7,lr}
        0x000011c6:    4616        .F      MOV      r6,r2
        0x000011c8:    b08a        ..      SUB      sp,sp,#0x28
        0x000011ca:    4830        0H      LDR      r0,[pc,#192] ; [0x128c] = 0x728
        0x000011cc:    4478        xD      ADD      r0,r0,pc
        0x000011ce:    466c        lF      MOV      r4,sp
        0x000011d0:    4603        .F      MOV      r3,r0
        0x000011d2:    337c        |3      ADDS     r3,r3,#0x7c
        0x000011d4:    6fc0        .o      LDR      r0,[r0,#0x7c]
        0x000011d6:    685a        Zh      LDR      r2,[r3,#4]
        0x000011d8:    689b        .h      LDR      r3,[r3,#8]
        0x000011da:    c40d        ..      STM      r4!,{r0,r2,r3}
        0x000011dc:    4b2b        +K      LDR      r3,[pc,#172] ; [0x128c] = 0x728
        0x000011de:    447b        {D      ADD      r3,r3,pc
        0x000011e0:    336e        n3      ADDS     r3,r3,#0x6e
        0x000011e2:    3308        .3      ADDS     r3,r3,#8
        0x000011e4:    ac03        ..      ADD      r4,sp,#0xc
        0x000011e6:    cb0d        ..      LDM      r3,{r0,r2,r3}
        0x000011e8:    c40d        ..      STM      r4!,{r0,r2,r3}
        0x000011ea:    2037        7       MOVS     r0,#0x37
        0x000011ec:    01c0        ..      LSLS     r0,r0,#7
        0x000011ee:    1808        ..      ADDS     r0,r1,r0
        0x000011f0:    2137        7!      MOVS     r1,#0x37
        0x000011f2:    301b        .0      ADDS     r0,r0,#0x1b
        0x000011f4:    f7fffb88    ....    BL       __aeabi_idiv ; 0x908
        0x000011f8:    4605        .F      MOV      r5,r0
        0x000011fa:    460c        .F      MOV      r4,r1
        0x000011fc:    3d80        .=      SUBS     r5,r5,#0x80
        0x000011fe:    3c1b        .<      SUBS     r4,r4,#0x1b
        0x00001200:    d502        ..      BPL      0x1208 ; _btod_etento + 68
        0x00001202:    4264        dB      RSBS     r4,r4,#0
        0x00001204:    2001        .       MOVS     r0,#1
        0x00001206:    e000        ..      B        0x120a ; _btod_etento + 70
        0x00001208:    2000        .       MOVS     r0,#0
        0x0000120a:    2700        .'      MOVS     r7,#0
        0x0000120c:    9009        ..      STR      r0,[sp,#0x24]
        0x0000120e:    e00f        ..      B        0x1230 ; _btod_etento + 108
        0x00001210:    07e0        ..      LSLS     r0,r4,#31
        0x00001212:    d00b        ..      BEQ      0x122c ; _btod_etento + 104
        0x00001214:    200c        .       MOVS     r0,#0xc
        0x00001216:    491d        .I      LDR      r1,[pc,#116] ; [0x128c] = 0x728
        0x00001218:    4378        xC      MULS     r0,r7,r0
        0x0000121a:    4479        yD      ADD      r1,r1,pc
        0x0000121c:    4632        2F      MOV      r2,r6
        0x0000121e:    394e        N9      SUBS     r1,r1,#0x4e
        0x00001220:    1841        A.      ADDS     r1,r0,r1
        0x00001222:    4668        hF      MOV      r0,sp
        0x00001224:    f000fa2e    ....    BL       _btod_emul ; 0x1684
        0x00001228:    466b        kF      MOV      r3,sp
        0x0000122a:    c307        ..      STM      r3!,{r0-r2}
        0x0000122c:    1064        d.      ASRS     r4,r4,#1
        0x0000122e:    1c7f        ..      ADDS     r7,r7,#1
        0x00001230:    2c00        .,      CMP      r4,#0
        0x00001232:    d1ed        ..      BNE      0x1210 ; _btod_etento + 76
        0x00001234:    4f15        .O      LDR      r7,[pc,#84] ; [0x128c] = 0x728
        0x00001236:    447f        .D      ADD      r7,r7,pc
        0x00001238:    3f2e        .?      SUBS     r7,r7,#0x2e
        0x0000123a:    e016        ..      B        0x126a ; _btod_etento + 166
        0x0000123c:    07e8        ..      LSLS     r0,r5,#31
        0x0000123e:    d012        ..      BEQ      0x1266 ; _btod_etento + 162
        0x00001240:    0120         .      LSLS     r0,r4,#4
        0x00001242:    19c0        ..      ADDS     r0,r0,r7
        0x00001244:    4601        .F      MOV      r1,r0
        0x00001246:    c90e        ..      LDM      r1,{r1-r3}
        0x00001248:    9106        ..      STR      r1,[sp,#0x18]
        0x0000124a:    9308        ..      STR      r3,[sp,#0x20]
        0x0000124c:    9207        ..      STR      r2,[sp,#0x1c]
        0x0000124e:    68c0        .h      LDR      r0,[r0,#0xc]
        0x00001250:    42f0        .B      CMN      r0,r6
        0x00001252:    d101        ..      BNE      0x1258 ; _btod_etento + 148
        0x00001254:    1998        ..      ADDS     r0,r3,r6
        0x00001256:    9008        ..      STR      r0,[sp,#0x20]
        0x00001258:    4632        2F      MOV      r2,r6
        0x0000125a:    a906        ..      ADD      r1,sp,#0x18
        0x0000125c:    a803        ..      ADD      r0,sp,#0xc
        0x0000125e:    f000fa11    ....    BL       _btod_emul ; 0x1684
        0x00001262:    ab03        ..      ADD      r3,sp,#0xc
        0x00001264:    c307        ..      STM      r3!,{r0-r2}
        0x00001266:    106d        m.      ASRS     r5,r5,#1
        0x00001268:    1c64        d.      ADDS     r4,r4,#1
        0x0000126a:    2d00        .-      CMP      r5,#0
        0x0000126c:    d1e6        ..      BNE      0x123c ; _btod_etento + 120
        0x0000126e:    4632        2F      MOV      r2,r6
        0x00001270:    4669        iF      MOV      r1,sp
        0x00001272:    9809        ..      LDR      r0,[sp,#0x24]
        0x00001274:    2800        .(      CMP      r0,#0
        0x00001276:    a803        ..      ADD      r0,sp,#0xc
        0x00001278:    d002        ..      BEQ      0x1280 ; _btod_etento + 188
        0x0000127a:    f000fa35    ..5.    BL       _btod_ediv ; 0x16e8
        0x0000127e:    e001        ..      B        0x1284 ; _btod_etento + 192
        0x00001280:    f000fa00    ....    BL       _btod_emul ; 0x1684
        0x00001284:    9b0a        ..      LDR      r3,[sp,#0x28]
        0x00001286:    c307        ..      STM      r3!,{r0-r2}
        0x00001288:    b00d        ..      ADD      sp,sp,#0x34
        0x0000128a:    bdf0        ..      POP      {r4-r7,pc}
    $d
        0x0000128c:    00000728    (...    DCD    1832
    $t
    .text
    _btod_d2e
        0x00001290:    4603        .F      MOV      r3,r0
        0x00001292:    0040        @.      LSLS     r0,r0,#1
        0x00001294:    460a        .F      MOV      r2,r1
        0x00001296:    b510        ..      PUSH     {r4,lr}
        0x00001298:    0d40        @.      LSRS     r0,r0,#21
        0x0000129a:    d00b        ..      BEQ      0x12b4 ; _btod_d2e + 36
        0x0000129c:    2101        .!      MOVS     r1,#1
        0x0000129e:    07c9        ..      LSLS     r1,r1,#31
        0x000012a0:    240f        .$      MOVS     r4,#0xf
        0x000012a2:    02a4        ..      LSLS     r4,r4,#10
        0x000012a4:    1900        ..      ADDS     r0,r0,r4
        0x000012a6:    031c        ..      LSLS     r4,r3,#12
        0x000012a8:    0864        d.      LSRS     r4,r4,#1
        0x000012aa:    4321        !C      ORRS     r1,r1,r4
        0x000012ac:    0d54        T.      LSRS     r4,r2,#21
        0x000012ae:    4321        !C      ORRS     r1,r1,r4
        0x000012b0:    02d2        ..      LSLS     r2,r2,#11
        0x000012b2:    e007        ..      B        0x12c4 ; _btod_d2e + 52
        0x000012b4:    2100        .!      MOVS     r1,#0
        0x000012b6:    2001        .       MOVS     r0,#1
        0x000012b8:    e7f2        ..      B        0x12a0 ; _btod_d2e + 16
        0x000012ba:    0fd4        ..      LSRS     r4,r2,#31
        0x000012bc:    0049        I.      LSLS     r1,r1,#1
        0x000012be:    4321        !C      ORRS     r1,r1,r4
        0x000012c0:    0052        R.      LSLS     r2,r2,#1
        0x000012c2:    1e40        @.      SUBS     r0,r0,#1
        0x000012c4:    2900        .)      CMP      r1,#0
        0x000012c6:    daf8        ..      BGE      0x12ba ; _btod_d2e + 42
        0x000012c8:    0fdb        ..      LSRS     r3,r3,#31
        0x000012ca:    07db        ..      LSLS     r3,r3,#31
        0x000012cc:    4318        .C      ORRS     r0,r0,r3
        0x000012ce:    bd10        ..      POP      {r4,pc}
    btod_internal_mul
        0x000012d0:    b5ff        ..      PUSH     {r0-r7,lr}
        0x000012d2:    460c        .F      MOV      r4,r1
        0x000012d4:    4615        .F      MOV      r5,r2
        0x000012d6:    b085        ..      SUB      sp,sp,#0x14
        0x000012d8:    6848        Hh      LDR      r0,[r1,#4]
        0x000012da:    6851        Qh      LDR      r1,[r2,#4]
        0x000012dc:    f000faa4    ....    BL       __ARM_common_ll_muluu ; 0x1828
        0x000012e0:    9100        ..      STR      r1,[sp,#0]
        0x000012e2:    9001        ..      STR      r0,[sp,#4]
        0x000012e4:    68a0        .h      LDR      r0,[r4,#8]
        0x000012e6:    68a9        .h      LDR      r1,[r5,#8]
        0x000012e8:    f000fa9e    ....    BL       __ARM_common_ll_muluu ; 0x1828
        0x000012ec:    9102        ..      STR      r1,[sp,#8]
        0x000012ee:    9003        ..      STR      r0,[sp,#0xc]
        0x000012f0:    68a0        .h      LDR      r0,[r4,#8]
        0x000012f2:    6869        ih      LDR      r1,[r5,#4]
        0x000012f4:    f000fa98    ....    BL       __ARM_common_ll_muluu ; 0x1828
        0x000012f8:    9a02        ..      LDR      r2,[sp,#8]
        0x000012fa:    2601        .&      MOVS     r6,#1
        0x000012fc:    1812        ..      ADDS     r2,r2,r0
        0x000012fe:    9202        ..      STR      r2,[sp,#8]
        0x00001300:    4632        2F      MOV      r2,r6
        0x00001302:    9b02        ..      LDR      r3,[sp,#8]
        0x00001304:    4283        .B      CMP      r3,r0
        0x00001306:    d300        ..      BCC      0x130a ; btod_internal_mul + 58
        0x00001308:    2200        ."      MOVS     r2,#0
        0x0000130a:    9801        ..      LDR      r0,[sp,#4]
        0x0000130c:    188b        ..      ADDS     r3,r1,r2
        0x0000130e:    18c0        ..      ADDS     r0,r0,r3
        0x00001310:    2a00        .*      CMP      r2,#0
        0x00001312:    9001        ..      STR      r0,[sp,#4]
        0x00001314:    4630        0F      MOV      r0,r6
        0x00001316:    9a01        ..      LDR      r2,[sp,#4]
        0x00001318:    d002        ..      BEQ      0x1320 ; btod_internal_mul + 80
        0x0000131a:    428a        .B      CMP      r2,r1
        0x0000131c:    d903        ..      BLS      0x1326 ; btod_internal_mul + 86
        0x0000131e:    e001        ..      B        0x1324 ; btod_internal_mul + 84
        0x00001320:    428a        .B      CMP      r2,r1
        0x00001322:    d300        ..      BCC      0x1326 ; btod_internal_mul + 86
        0x00001324:    2000        .       MOVS     r0,#0
        0x00001326:    9900        ..      LDR      r1,[sp,#0]
        0x00001328:    1808        ..      ADDS     r0,r1,r0
        0x0000132a:    9000        ..      STR      r0,[sp,#0]
        0x0000132c:    6860        `h      LDR      r0,[r4,#4]
        0x0000132e:    68a9        .h      LDR      r1,[r5,#8]
        0x00001330:    f000fa7a    ..z.    BL       __ARM_common_ll_muluu ; 0x1828
        0x00001334:    9a02        ..      LDR      r2,[sp,#8]
        0x00001336:    1812        ..      ADDS     r2,r2,r0
        0x00001338:    9202        ..      STR      r2,[sp,#8]
        0x0000133a:    4632        2F      MOV      r2,r6
        0x0000133c:    9b02        ..      LDR      r3,[sp,#8]
        0x0000133e:    4283        .B      CMP      r3,r0
        0x00001340:    d300        ..      BCC      0x1344 ; btod_internal_mul + 116
        0x00001342:    2200        ."      MOVS     r2,#0
        0x00001344:    9801        ..      LDR      r0,[sp,#4]
        0x00001346:    188b        ..      ADDS     r3,r1,r2
        0x00001348:    18c0        ..      ADDS     r0,r0,r3
        0x0000134a:    2a00        .*      CMP      r2,#0
        0x0000134c:    9001        ..      STR      r0,[sp,#4]
        0x0000134e:    d002        ..      BEQ      0x1356 ; btod_internal_mul + 134
        0x00001350:    4288        .B      CMP      r0,r1
        0x00001352:    d903        ..      BLS      0x135c ; btod_internal_mul + 140
        0x00001354:    e001        ..      B        0x135a ; btod_internal_mul + 138
        0x00001356:    4288        .B      CMP      r0,r1
        0x00001358:    d300        ..      BCC      0x135c ; btod_internal_mul + 140
        0x0000135a:    2600        .&      MOVS     r6,#0
        0x0000135c:    9800        ..      LDR      r0,[sp,#0]
        0x0000135e:    1980        ..      ADDS     r0,r0,r6
        0x00001360:    9000        ..      STR      r0,[sp,#0]
        0x00001362:    6820         h      LDR      r0,[r4,#0]
        0x00001364:    6829        )h      LDR      r1,[r5,#0]
        0x00001366:    0040        @.      LSLS     r0,r0,#1
        0x00001368:    0049        I.      LSLS     r1,r1,#1
        0x0000136a:    0840        @.      LSRS     r0,r0,#1
        0x0000136c:    0849        I.      LSRS     r1,r1,#1
        0x0000136e:    1840        @.      ADDS     r0,r0,r1
        0x00001370:    49f6        .I      LDR      r1,[pc,#984] ; [0x174c] = 0xffffc002
        0x00001372:    1847        G.      ADDS     r7,r0,r1
        0x00001374:    e014        ..      B        0x13a0 ; btod_internal_mul + 208
        0x00001376:    9901        ..      LDR      r1,[sp,#4]
        0x00001378:    0040        @.      LSLS     r0,r0,#1
        0x0000137a:    0fc9        ..      LSRS     r1,r1,#31
        0x0000137c:    4308        .C      ORRS     r0,r0,r1
        0x0000137e:    9000        ..      STR      r0,[sp,#0]
        0x00001380:    9801        ..      LDR      r0,[sp,#4]
        0x00001382:    9902        ..      LDR      r1,[sp,#8]
        0x00001384:    0040        @.      LSLS     r0,r0,#1
        0x00001386:    0fc9        ..      LSRS     r1,r1,#31
        0x00001388:    4308        .C      ORRS     r0,r0,r1
        0x0000138a:    9001        ..      STR      r0,[sp,#4]
        0x0000138c:    9802        ..      LDR      r0,[sp,#8]
        0x0000138e:    9903        ..      LDR      r1,[sp,#0xc]
        0x00001390:    0040        @.      LSLS     r0,r0,#1
        0x00001392:    0fc9        ..      LSRS     r1,r1,#31
        0x00001394:    4308        .C      ORRS     r0,r0,r1
        0x00001396:    9002        ..      STR      r0,[sp,#8]
        0x00001398:    9803        ..      LDR      r0,[sp,#0xc]
        0x0000139a:    0040        @.      LSLS     r0,r0,#1
        0x0000139c:    1e7f        ..      SUBS     r7,r7,#1
        0x0000139e:    9003        ..      STR      r0,[sp,#0xc]
        0x000013a0:    9800        ..      LDR      r0,[sp,#0]
        0x000013a2:    2800        .(      CMP      r0,#0
        0x000013a4:    dae7        ..      BGE      0x1376 ; btod_internal_mul + 166
        0x000013a6:    9808        ..      LDR      r0,[sp,#0x20]
        0x000013a8:    2800        .(      CMP      r0,#0
        0x000013aa:    d001        ..      BEQ      0x13b0 ; btod_internal_mul + 224
        0x000013ac:    4ee8        .N      LDR      r6,[pc,#928] ; [0x1750] = 0x3c01
        0x000013ae:    e000        ..      B        0x13b2 ; btod_internal_mul + 226
        0x000013b0:    2600        .&      MOVS     r6,#0
        0x000013b2:    42b7        .B      CMP      r7,r6
        0x000013b4:    da28        (.      BGE      0x1408 ; btod_internal_mul + 312
        0x000013b6:    1bf7        ..      SUBS     r7,r6,r7
        0x000013b8:    06f8        ..      LSLS     r0,r7,#27
        0x000013ba:    0ec0        ..      LSRS     r0,r0,#27
        0x000013bc:    d015        ..      BEQ      0x13ea ; btod_internal_mul + 282
        0x000013be:    9b02        ..      LDR      r3,[sp,#8]
        0x000013c0:    2120         !      MOVS     r1,#0x20
        0x000013c2:    1a09        ..      SUBS     r1,r1,r0
        0x000013c4:    9a03        ..      LDR      r2,[sp,#0xc]
        0x000013c6:    408b        .@      LSLS     r3,r3,r1
        0x000013c8:    431a        .C      ORRS     r2,r2,r3
        0x000013ca:    9203        ..      STR      r2,[sp,#0xc]
        0x000013cc:    9a02        ..      LDR      r2,[sp,#8]
        0x000013ce:    9b01        ..      LDR      r3,[sp,#4]
        0x000013d0:    40c2        .@      LSRS     r2,r2,r0
        0x000013d2:    408b        .@      LSLS     r3,r3,r1
        0x000013d4:    431a        .C      ORRS     r2,r2,r3
        0x000013d6:    9202        ..      STR      r2,[sp,#8]
        0x000013d8:    9a01        ..      LDR      r2,[sp,#4]
        0x000013da:    9b00        ..      LDR      r3,[sp,#0]
        0x000013dc:    40c2        .@      LSRS     r2,r2,r0
        0x000013de:    408b        .@      LSLS     r3,r3,r1
        0x000013e0:    9900        ..      LDR      r1,[sp,#0]
        0x000013e2:    431a        .C      ORRS     r2,r2,r3
        0x000013e4:    9201        ..      STR      r2,[sp,#4]
        0x000013e6:    40c1        .@      LSRS     r1,r1,r0
        0x000013e8:    9100        ..      STR      r1,[sp,#0]
        0x000013ea:    117a        z.      ASRS     r2,r7,#5
        0x000013ec:    d00b        ..      BEQ      0x1406 ; btod_internal_mul + 310
        0x000013ee:    466b        kF      MOV      r3,sp
        0x000013f0:    2003        .       MOVS     r0,#3
        0x000013f2:    1a81        ..      SUBS     r1,r0,r2
        0x000013f4:    d501        ..      BPL      0x13fa ; btod_internal_mul + 298
        0x000013f6:    2100        .!      MOVS     r1,#0
        0x000013f8:    e001        ..      B        0x13fe ; btod_internal_mul + 302
        0x000013fa:    0089        ..      LSLS     r1,r1,#2
        0x000013fc:    5859        YX      LDR      r1,[r3,r1]
        0x000013fe:    0087        ..      LSLS     r7,r0,#2
        0x00001400:    1e40        @.      SUBS     r0,r0,#1
        0x00001402:    51d9        .Q      STR      r1,[r3,r7]
        0x00001404:    d5f5        ..      BPL      0x13f2 ; btod_internal_mul + 290
        0x00001406:    4637        7F      MOV      r7,r6
        0x00001408:    9803        ..      LDR      r0,[sp,#0xc]
        0x0000140a:    9902        ..      LDR      r1,[sp,#8]
        0x0000140c:    2800        .(      CMP      r0,#0
        0x0000140e:    d000        ..      BEQ      0x1412 ; btod_internal_mul + 322
        0x00001410:    2001        .       MOVS     r0,#1
        0x00001412:    4301        .C      ORRS     r1,r1,r0
        0x00001414:    9808        ..      LDR      r0,[sp,#0x20]
        0x00001416:    9102        ..      STR      r1,[sp,#8]
        0x00001418:    2800        .(      CMP      r0,#0
        0x0000141a:    4608        .F      MOV      r0,r1
        0x0000141c:    d00c        ..      BEQ      0x1438 ; btod_internal_mul + 360
        0x0000141e:    2800        .(      CMP      r0,#0
        0x00001420:    d000        ..      BEQ      0x1424 ; btod_internal_mul + 340
        0x00001422:    2001        .       MOVS     r0,#1
        0x00001424:    9901        ..      LDR      r1,[sp,#4]
        0x00001426:    9a01        ..      LDR      r2,[sp,#4]
        0x00001428:    0549        I.      LSLS     r1,r1,#21
        0x0000142a:    4308        .C      ORRS     r0,r0,r1
        0x0000142c:    2101        .!      MOVS     r1,#1
        0x0000142e:    0ad2        ..      LSRS     r2,r2,#11
        0x00001430:    02c9        ..      LSLS     r1,r1,#11
        0x00001432:    02d2        ..      LSLS     r2,r2,#11
        0x00001434:    9201        ..      STR      r2,[sp,#4]
        0x00001436:    e000        ..      B        0x143a ; btod_internal_mul + 362
        0x00001438:    2101        .!      MOVS     r1,#1
        0x0000143a:    9b0e        ..      LDR      r3,[sp,#0x38]
        0x0000143c:    2201        ."      MOVS     r2,#1
        0x0000143e:    07d2        ..      LSLS     r2,r2,#31
        0x00001440:    2b01        .+      CMP      r3,#1
        0x00001442:    d002        ..      BEQ      0x144a ; btod_internal_mul + 378
        0x00001444:    2b00        .+      CMP      r3,#0
        0x00001446:    d003        ..      BEQ      0x1450 ; btod_internal_mul + 384
        0x00001448:    e013        ..      B        0x1472 ; btod_internal_mul + 418
        0x0000144a:    2800        .(      CMP      r0,#0
        0x0000144c:    d107        ..      BNE      0x145e ; btod_internal_mul + 398
        0x0000144e:    e016        ..      B        0x147e ; btod_internal_mul + 430
        0x00001450:    4290        .B      CMP      r0,r2
        0x00001452:    d804        ..      BHI      0x145e ; btod_internal_mul + 398
        0x00001454:    4290        .B      CMP      r0,r2
        0x00001456:    d10c        ..      BNE      0x1472 ; btod_internal_mul + 418
        0x00001458:    9b01        ..      LDR      r3,[sp,#4]
        0x0000145a:    420b        .B      TST      r3,r1
        0x0000145c:    d009        ..      BEQ      0x1472 ; btod_internal_mul + 418
        0x0000145e:    9b01        ..      LDR      r3,[sp,#4]
        0x00001460:    1859        Y.      ADDS     r1,r3,r1
        0x00001462:    9101        ..      STR      r1,[sp,#4]
        0x00001464:    d105        ..      BNE      0x1472 ; btod_internal_mul + 418
        0x00001466:    9900        ..      LDR      r1,[sp,#0]
        0x00001468:    1c49        I.      ADDS     r1,r1,#1
        0x0000146a:    9100        ..      STR      r1,[sp,#0]
        0x0000146c:    d101        ..      BNE      0x1472 ; btod_internal_mul + 418
        0x0000146e:    1c7f        ..      ADDS     r7,r7,#1
        0x00001470:    9200        ..      STR      r2,[sp,#0]
        0x00001472:    2800        .(      CMP      r0,#0
        0x00001474:    d003        ..      BEQ      0x147e ; btod_internal_mul + 430
        0x00001476:    2110        .!      MOVS     r1,#0x10
        0x00001478:    4608        .F      MOV      r0,r1
        0x0000147a:    2000        .       MOVS     r0,#0
        0x0000147c:    46c0        .F      MOV      r8,r8
        0x0000147e:    6820         h      LDR      r0,[r4,#0]
        0x00001480:    6829        )h      LDR      r1,[r5,#0]
        0x00001482:    9b01        ..      LDR      r3,[sp,#4]
        0x00001484:    9a00        ..      LDR      r2,[sp,#0]
        0x00001486:    4048        H@      EORS     r0,r0,r1
        0x00001488:    0fc1        ..      LSRS     r1,r0,#31
        0x0000148a:    9805        ..      LDR      r0,[sp,#0x14]
        0x0000148c:    07c9        ..      LSLS     r1,r1,#31
        0x0000148e:    4339        9C      ORRS     r1,r1,r7
        0x00001490:    c00e        ..      STM      r0!,{r1-r3}
        0x00001492:    b009        ..      ADD      sp,sp,#0x24
        0x00001494:    bdf0        ..      POP      {r4-r7,pc}
    btod_internal_div
        0x00001496:    b5ff        ..      PUSH     {r0-r7,lr}
        0x00001498:    b087        ..      SUB      sp,sp,#0x1c
        0x0000149a:    9a09        ..      LDR      r2,[sp,#0x24]
        0x0000149c:    9808        ..      LDR      r0,[sp,#0x20]
        0x0000149e:    9908        ..      LDR      r1,[sp,#0x20]
        0x000014a0:    9b09        ..      LDR      r3,[sp,#0x24]
        0x000014a2:    6852        Rh      LDR      r2,[r2,#4]
        0x000014a4:    6840        @h      LDR      r0,[r0,#4]
        0x000014a6:    6889        .h      LDR      r1,[r1,#8]
        0x000014a8:    689b        .h      LDR      r3,[r3,#8]
        0x000014aa:    9203        ..      STR      r2,[sp,#0xc]
        0x000014ac:    2200        ."      MOVS     r2,#0
        0x000014ae:    4617        .F      MOV      r7,r2
        0x000014b0:    4694        .F      MOV      r12,r2
        0x000014b2:    9a08        ..      LDR      r2,[sp,#0x20]
        0x000014b4:    469e        .F      MOV      lr,r3
        0x000014b6:    6812        .h      LDR      r2,[r2,#0]
        0x000014b8:    0053        S.      LSLS     r3,r2,#1
        0x000014ba:    9a09        ..      LDR      r2,[sp,#0x24]
        0x000014bc:    085b        [.      LSRS     r3,r3,#1
        0x000014be:    6812        .h      LDR      r2,[r2,#0]
        0x000014c0:    0052        R.      LSLS     r2,r2,#1
        0x000014c2:    0852        R.      LSRS     r2,r2,#1
        0x000014c4:    1a9a        ..      SUBS     r2,r3,r2
        0x000014c6:    4ba3        .K      LDR      r3,[pc,#652] ; [0x1754] = 0x3fff
        0x000014c8:    18d4        ..      ADDS     r4,r2,r3
        0x000014ca:    9b0a        ..      LDR      r3,[sp,#0x28]
        0x000014cc:    2235        5"      MOVS     r2,#0x35
        0x000014ce:    2b00        .+      CMP      r3,#0
        0x000014d0:    d100        ..      BNE      0x14d4 ; btod_internal_div + 62
        0x000014d2:    2240        @"      MOVS     r2,#0x40
        0x000014d4:    9206        ..      STR      r2,[sp,#0x18]
        0x000014d6:    2200        ."      MOVS     r2,#0
        0x000014d8:    2301        .#      MOVS     r3,#1
        0x000014da:    4615        .F      MOV      r5,r2
        0x000014dc:    9204        ..      STR      r2,[sp,#0x10]
        0x000014de:    07db        ..      LSLS     r3,r3,#31
        0x000014e0:    9305        ..      STR      r3,[sp,#0x14]
        0x000014e2:    e024        $.      B        0x152e ; btod_internal_div + 152
        0x000014e4:    2d00        .-      CMP      r5,#0
        0x000014e6:    d105        ..      BNE      0x14f4 ; btod_internal_div + 94
        0x000014e8:    4675        uF      MOV      r5,lr
        0x000014ea:    4603        .F      MOV      r3,r0
        0x000014ec:    9e03        ..      LDR      r6,[sp,#0xc]
        0x000014ee:    1b4d        M.      SUBS     r5,r1,r5
        0x000014f0:    41b3        .A      SBCS     r3,r3,r6
        0x000014f2:    d309        ..      BCC      0x1508 ; btod_internal_div + 114
        0x000014f4:    4675        uF      MOV      r5,lr
        0x000014f6:    4666        fF      MOV      r6,r12
        0x000014f8:    9b03        ..      LDR      r3,[sp,#0xc]
        0x000014fa:    1b49        I.      SUBS     r1,r1,r5
        0x000014fc:    9d04        ..      LDR      r5,[sp,#0x10]
        0x000014fe:    4198        .A      SBCS     r0,r0,r3
        0x00001500:    9b05        ..      LDR      r3,[sp,#0x14]
        0x00001502:    1975        u.      ADDS     r5,r6,r5
        0x00001504:    46ac        .F      MOV      r12,r5
        0x00001506:    415f        _A      ADCS     r7,r7,r3
        0x00001508:    4663        cF      MOV      r3,r12
        0x0000150a:    433b        ;C      ORRS     r3,r3,r7
        0x0000150c:    d008        ..      BEQ      0x1520 ; btod_internal_div + 138
        0x0000150e:    9b05        ..      LDR      r3,[sp,#0x14]
        0x00001510:    9e04        ..      LDR      r6,[sp,#0x10]
        0x00001512:    07dd        ..      LSLS     r5,r3,#31
        0x00001514:    0876        v.      LSRS     r6,r6,#1
        0x00001516:    432e        .C      ORRS     r6,r6,r5
        0x00001518:    085b        [.      LSRS     r3,r3,#1
        0x0000151a:    9604        ..      STR      r6,[sp,#0x10]
        0x0000151c:    9305        ..      STR      r3,[sp,#0x14]
        0x0000151e:    e001        ..      B        0x1524 ; btod_internal_div + 142
        0x00001520:    1e64        d.      SUBS     r4,r4,#1
        0x00001522:    1e52        R.      SUBS     r2,r2,#1
        0x00001524:    0fc5        ..      LSRS     r5,r0,#31
        0x00001526:    07ed        ..      LSLS     r5,r5,#31
        0x00001528:    1849        I.      ADDS     r1,r1,r1
        0x0000152a:    4140        @A      ADCS     r0,r0,r0
        0x0000152c:    1c52        R.      ADDS     r2,r2,#1
        0x0000152e:    9b06        ..      LDR      r3,[sp,#0x18]
        0x00001530:    429a        .B      CMP      r2,r3
        0x00001532:    dbd7        ..      BLT      0x14e4 ; btod_internal_div + 78
        0x00001534:    2d00        .-      CMP      r5,#0
        0x00001536:    d104        ..      BNE      0x1542 ; btod_internal_div + 172
        0x00001538:    4675        uF      MOV      r5,lr
        0x0000153a:    9a03        ..      LDR      r2,[sp,#0xc]
        0x0000153c:    1a6b        k.      SUBS     r3,r5,r1
        0x0000153e:    4182        .A      SBCS     r2,r2,r0
        0x00001540:    d201        ..      BCS      0x1546 ; btod_internal_div + 176
        0x00001542:    2003        .       MOVS     r0,#3
        0x00001544:    e00c        ..      B        0x1560 ; btod_internal_div + 202
        0x00001546:    9a03        ..      LDR      r2,[sp,#0xc]
        0x00001548:    460b        .F      MOV      r3,r1
        0x0000154a:    406b        k@      EORS     r3,r3,r5
        0x0000154c:    4042        B@      EORS     r2,r2,r0
        0x0000154e:    4313        .C      ORRS     r3,r3,r2
        0x00001550:    d101        ..      BNE      0x1556 ; btod_internal_div + 192
        0x00001552:    2002        .       MOVS     r0,#2
        0x00001554:    e004        ..      B        0x1560 ; btod_internal_div + 202
        0x00001556:    4301        .C      ORRS     r1,r1,r0
        0x00001558:    d001        ..      BEQ      0x155e ; btod_internal_div + 200
        0x0000155a:    2001        .       MOVS     r0,#1
        0x0000155c:    e000        ..      B        0x1560 ; btod_internal_div + 202
        0x0000155e:    2000        .       MOVS     r0,#0
        0x00001560:    4661        aF      MOV      r1,r12
        0x00001562:    9101        ..      STR      r1,[sp,#4]
        0x00001564:    2100        .!      MOVS     r1,#0
        0x00001566:    9700        ..      STR      r7,[sp,#0]
        0x00001568:    9102        ..      STR      r1,[sp,#8]
        0x0000156a:    990a        ..      LDR      r1,[sp,#0x28]
        0x0000156c:    2900        .)      CMP      r1,#0
        0x0000156e:    d005        ..      BEQ      0x157c ; btod_internal_div + 230
        0x00001570:    4661        aF      MOV      r1,r12
        0x00001572:    0240        @.      LSLS     r0,r0,#9
        0x00001574:    4301        .C      ORRS     r1,r1,r0
        0x00001576:    4b76        vK      LDR      r3,[pc,#472] ; [0x1750] = 0x3c01
        0x00001578:    9101        ..      STR      r1,[sp,#4]
        0x0000157a:    e002        ..      B        0x1582 ; btod_internal_div + 236
        0x0000157c:    0780        ..      LSLS     r0,r0,#30
        0x0000157e:    2300        .#      MOVS     r3,#0
        0x00001580:    9002        ..      STR      r0,[sp,#8]
        0x00001582:    429c        .B      CMP      r4,r3
        0x00001584:    da3a        :.      BGE      0x15fc ; btod_internal_div + 358
        0x00001586:    1b1a        ..      SUBS     r2,r3,r4
        0x00001588:    06d0        ..      LSLS     r0,r2,#27
        0x0000158a:    0ec0        ..      LSRS     r0,r0,#27
        0x0000158c:    d015        ..      BEQ      0x15ba ; btod_internal_div + 292
        0x0000158e:    9d02        ..      LDR      r5,[sp,#8]
        0x00001590:    2120         !      MOVS     r1,#0x20
        0x00001592:    9c01        ..      LDR      r4,[sp,#4]
        0x00001594:    1a09        ..      SUBS     r1,r1,r0
        0x00001596:    40c5        .@      LSRS     r5,r5,r0
        0x00001598:    408c        .@      LSLS     r4,r4,r1
        0x0000159a:    4325        %C      ORRS     r5,r5,r4
        0x0000159c:    9c02        ..      LDR      r4,[sp,#8]
        0x0000159e:    408c        .@      LSLS     r4,r4,r1
        0x000015a0:    d000        ..      BEQ      0x15a4 ; btod_internal_div + 270
        0x000015a2:    2401        .$      MOVS     r4,#1
        0x000015a4:    4325        %C      ORRS     r5,r5,r4
        0x000015a6:    9c01        ..      LDR      r4,[sp,#4]
        0x000015a8:    9502        ..      STR      r5,[sp,#8]
        0x000015aa:    463d        =F      MOV      r5,r7
        0x000015ac:    40c4        .@      LSRS     r4,r4,r0
        0x000015ae:    408d        .@      LSLS     r5,r5,r1
        0x000015b0:    4639        9F      MOV      r1,r7
        0x000015b2:    432c        ,C      ORRS     r4,r4,r5
        0x000015b4:    40c1        .@      LSRS     r1,r1,r0
        0x000015b6:    9401        ..      STR      r4,[sp,#4]
        0x000015b8:    9100        ..      STR      r1,[sp,#0]
        0x000015ba:    1154        T.      ASRS     r4,r2,#5
        0x000015bc:    d01d        ..      BEQ      0x15fa ; btod_internal_div + 356
        0x000015be:    466d        mF      MOV      r5,sp
        0x000015c0:    2102        .!      MOVS     r1,#2
        0x000015c2:    2200        ."      MOVS     r2,#0
        0x000015c4:    2902        .)      CMP      r1,#2
        0x000015c6:    d10c        ..      BNE      0x15e2 ; btod_internal_div + 332
        0x000015c8:    2003        .       MOVS     r0,#3
        0x000015ca:    1b00        ..      SUBS     r0,r0,r4
        0x000015cc:    e007        ..      B        0x15de ; btod_internal_div + 328
        0x000015ce:    2800        .(      CMP      r0,#0
        0x000015d0:    db04        ..      BLT      0x15dc ; btod_internal_div + 326
        0x000015d2:    0086        ..      LSLS     r6,r0,#2
        0x000015d4:    59ae        .Y      LDR      r6,[r5,r6]
        0x000015d6:    2e00        ..      CMP      r6,#0
        0x000015d8:    d000        ..      BEQ      0x15dc ; btod_internal_div + 326
        0x000015da:    2201        ."      MOVS     r2,#1
        0x000015dc:    1c40        @.      ADDS     r0,r0,#1
        0x000015de:    2803        .(      CMP      r0,#3
        0x000015e0:    dbf5        ..      BLT      0x15ce ; btod_internal_div + 312
        0x000015e2:    1b08        ..      SUBS     r0,r1,r4
        0x000015e4:    d502        ..      BPL      0x15ec ; btod_internal_div + 342
        0x000015e6:    0088        ..      LSLS     r0,r1,#2
        0x000015e8:    502a        *P      STR      r2,[r5,r0]
        0x000015ea:    e004        ..      B        0x15f6 ; btod_internal_div + 352
        0x000015ec:    0080        ..      LSLS     r0,r0,#2
        0x000015ee:    5828        (X      LDR      r0,[r5,r0]
        0x000015f0:    4310        .C      ORRS     r0,r0,r2
        0x000015f2:    008a        ..      LSLS     r2,r1,#2
        0x000015f4:    50a8        .P      STR      r0,[r5,r2]
        0x000015f6:    1e49        I.      SUBS     r1,r1,#1
        0x000015f8:    d5e3        ..      BPL      0x15c2 ; btod_internal_div + 300
        0x000015fa:    461c        .F      MOV      r4,r3
        0x000015fc:    980a        ..      LDR      r0,[sp,#0x28]
        0x000015fe:    2800        .(      CMP      r0,#0
        0x00001600:    9802        ..      LDR      r0,[sp,#8]
        0x00001602:    d00c        ..      BEQ      0x161e ; btod_internal_div + 392
        0x00001604:    2800        .(      CMP      r0,#0
        0x00001606:    d000        ..      BEQ      0x160a ; btod_internal_div + 372
        0x00001608:    2001        .       MOVS     r0,#1
        0x0000160a:    9901        ..      LDR      r1,[sp,#4]
        0x0000160c:    9a01        ..      LDR      r2,[sp,#4]
        0x0000160e:    0549        I.      LSLS     r1,r1,#21
        0x00001610:    4308        .C      ORRS     r0,r0,r1
        0x00001612:    2101        .!      MOVS     r1,#1
        0x00001614:    0ad2        ..      LSRS     r2,r2,#11
        0x00001616:    02c9        ..      LSLS     r1,r1,#11
        0x00001618:    02d2        ..      LSLS     r2,r2,#11
        0x0000161a:    9201        ..      STR      r2,[sp,#4]
        0x0000161c:    e000        ..      B        0x1620 ; btod_internal_div + 394
        0x0000161e:    2101        .!      MOVS     r1,#1
        0x00001620:    9b10        ..      LDR      r3,[sp,#0x40]
        0x00001622:    2201        ."      MOVS     r2,#1
        0x00001624:    07d2        ..      LSLS     r2,r2,#31
        0x00001626:    2b01        .+      CMP      r3,#1
        0x00001628:    d002        ..      BEQ      0x1630 ; btod_internal_div + 410
        0x0000162a:    2b00        .+      CMP      r3,#0
        0x0000162c:    d003        ..      BEQ      0x1636 ; btod_internal_div + 416
        0x0000162e:    e013        ..      B        0x1658 ; btod_internal_div + 450
        0x00001630:    2800        .(      CMP      r0,#0
        0x00001632:    d107        ..      BNE      0x1644 ; btod_internal_div + 430
        0x00001634:    e016        ..      B        0x1664 ; btod_internal_div + 462
        0x00001636:    4290        .B      CMP      r0,r2
        0x00001638:    d804        ..      BHI      0x1644 ; btod_internal_div + 430
        0x0000163a:    4290        .B      CMP      r0,r2
        0x0000163c:    d10c        ..      BNE      0x1658 ; btod_internal_div + 450
        0x0000163e:    9b01        ..      LDR      r3,[sp,#4]
        0x00001640:    420b        .B      TST      r3,r1
        0x00001642:    d009        ..      BEQ      0x1658 ; btod_internal_div + 450
        0x00001644:    9b01        ..      LDR      r3,[sp,#4]
        0x00001646:    1859        Y.      ADDS     r1,r3,r1
        0x00001648:    9101        ..      STR      r1,[sp,#4]
        0x0000164a:    d105        ..      BNE      0x1658 ; btod_internal_div + 450
        0x0000164c:    9900        ..      LDR      r1,[sp,#0]
        0x0000164e:    1c49        I.      ADDS     r1,r1,#1
        0x00001650:    9100        ..      STR      r1,[sp,#0]
        0x00001652:    d101        ..      BNE      0x1658 ; btod_internal_div + 450
        0x00001654:    1c64        d.      ADDS     r4,r4,#1
        0x00001656:    9200        ..      STR      r2,[sp,#0]
        0x00001658:    2800        .(      CMP      r0,#0
        0x0000165a:    d003        ..      BEQ      0x1664 ; btod_internal_div + 462
        0x0000165c:    2110        .!      MOVS     r1,#0x10
        0x0000165e:    4608        .F      MOV      r0,r1
        0x00001660:    2000        .       MOVS     r0,#0
        0x00001662:    46c0        .F      MOV      r8,r8
        0x00001664:    9808        ..      LDR      r0,[sp,#0x20]
        0x00001666:    9909        ..      LDR      r1,[sp,#0x24]
        0x00001668:    9b00        ..      LDR      r3,[sp,#0]
        0x0000166a:    6800        .h      LDR      r0,[r0,#0]
        0x0000166c:    6809        .h      LDR      r1,[r1,#0]
        0x0000166e:    4048        H@      EORS     r0,r0,r1
        0x00001670:    9901        ..      LDR      r1,[sp,#4]
        0x00001672:    0fc2        ..      LSRS     r2,r0,#31
        0x00001674:    9807        ..      LDR      r0,[sp,#0x1c]
        0x00001676:    07d2        ..      LSLS     r2,r2,#31
        0x00001678:    4322        "C      ORRS     r2,r2,r4
        0x0000167a:    6043        C`      STR      r3,[r0,#4]
        0x0000167c:    6002        .`      STR      r2,[r0,#0]
        0x0000167e:    6081        .`      STR      r1,[r0,#8]
        0x00001680:    b00b        ..      ADD      sp,sp,#0x2c
        0x00001682:    bdf0        ..      POP      {r4-r7,pc}
    _btod_emul
        0x00001684:    b51f        ..      PUSH     {r0-r4,lr}
        0x00001686:    2300        .#      MOVS     r3,#0
        0x00001688:    9200        ..      STR      r2,[sp,#0]
        0x0000168a:    460a        .F      MOV      r2,r1
        0x0000168c:    4601        .F      MOV      r1,r0
        0x0000168e:    a801        ..      ADD      r0,sp,#4
        0x00001690:    f7fffe1e    ....    BL       btod_internal_mul ; 0x12d0
        0x00001694:    a801        ..      ADD      r0,sp,#4
        0x00001696:    c807        ..      LDM      r0,{r0-r2}
        0x00001698:    b004        ..      ADD      sp,sp,#0x10
        0x0000169a:    bd10        ..      POP      {r4,pc}
    _btod_emuld
        0x0000169c:    b51f        ..      PUSH     {r0-r4,lr}
        0x0000169e:    2301        .#      MOVS     r3,#1
        0x000016a0:    9200        ..      STR      r2,[sp,#0]
        0x000016a2:    460a        .F      MOV      r2,r1
        0x000016a4:    4601        .F      MOV      r1,r0
        0x000016a6:    a801        ..      ADD      r0,sp,#4
        0x000016a8:    f7fffe12    ....    BL       btod_internal_mul ; 0x12d0
        0x000016ac:    9801        ..      LDR      r0,[sp,#4]
        0x000016ae:    220f        ."      MOVS     r2,#0xf
        0x000016b0:    0292        ..      LSLS     r2,r2,#10
        0x000016b2:    0fc1        ..      LSRS     r1,r0,#31
        0x000016b4:    0040        @.      LSLS     r0,r0,#1
        0x000016b6:    07c9        ..      LSLS     r1,r1,#31
        0x000016b8:    0840        @.      LSRS     r0,r0,#1
        0x000016ba:    1a80        ..      SUBS     r0,r0,r2
        0x000016bc:    9001        ..      STR      r0,[sp,#4]
        0x000016be:    9802        ..      LDR      r0,[sp,#8]
        0x000016c0:    2800        .(      CMP      r0,#0
        0x000016c2:    db01        ..      BLT      0x16c8 ; _btod_emuld + 44
        0x000016c4:    2000        .       MOVS     r0,#0
        0x000016c6:    9001        ..      STR      r0,[sp,#4]
        0x000016c8:    9802        ..      LDR      r0,[sp,#8]
        0x000016ca:    0040        @.      LSLS     r0,r0,#1
        0x000016cc:    0840        @.      LSRS     r0,r0,#1
        0x000016ce:    9002        ..      STR      r0,[sp,#8]
        0x000016d0:    9801        ..      LDR      r0,[sp,#4]
        0x000016d2:    9a02        ..      LDR      r2,[sp,#8]
        0x000016d4:    0500        ..      LSLS     r0,r0,#20
        0x000016d6:    0ad2        ..      LSRS     r2,r2,#11
        0x000016d8:    4310        .C      ORRS     r0,r0,r2
        0x000016da:    4308        .C      ORRS     r0,r0,r1
        0x000016dc:    9902        ..      LDR      r1,[sp,#8]
        0x000016de:    9a03        ..      LDR      r2,[sp,#0xc]
        0x000016e0:    0549        I.      LSLS     r1,r1,#21
        0x000016e2:    0ad2        ..      LSRS     r2,r2,#11
        0x000016e4:    4311        .C      ORRS     r1,r1,r2
        0x000016e6:    e7d7        ..      B        0x1698 ; _btod_emul + 20
    _btod_ediv
        0x000016e8:    b51f        ..      PUSH     {r0-r4,lr}
        0x000016ea:    2300        .#      MOVS     r3,#0
        0x000016ec:    9200        ..      STR      r2,[sp,#0]
        0x000016ee:    460a        .F      MOV      r2,r1
        0x000016f0:    4601        .F      MOV      r1,r0
        0x000016f2:    a801        ..      ADD      r0,sp,#4
        0x000016f4:    f7fffecf    ....    BL       btod_internal_div ; 0x1496
        0x000016f8:    a801        ..      ADD      r0,sp,#4
        0x000016fa:    c807        ..      LDM      r0,{r0-r2}
        0x000016fc:    e7cc        ..      B        0x1698 ; _btod_emul + 20
    _btod_edivd
        0x000016fe:    b51f        ..      PUSH     {r0-r4,lr}
        0x00001700:    2301        .#      MOVS     r3,#1
        0x00001702:    9200        ..      STR      r2,[sp,#0]
        0x00001704:    460a        .F      MOV      r2,r1
        0x00001706:    4601        .F      MOV      r1,r0
        0x00001708:    a801        ..      ADD      r0,sp,#4
        0x0000170a:    f7fffec4    ....    BL       btod_internal_div ; 0x1496
        0x0000170e:    9801        ..      LDR      r0,[sp,#4]
        0x00001710:    220f        ."      MOVS     r2,#0xf
        0x00001712:    0292        ..      LSLS     r2,r2,#10
        0x00001714:    0fc1        ..      LSRS     r1,r0,#31
        0x00001716:    0040        @.      LSLS     r0,r0,#1
        0x00001718:    07c9        ..      LSLS     r1,r1,#31
        0x0000171a:    0840        @.      LSRS     r0,r0,#1
        0x0000171c:    1a80        ..      SUBS     r0,r0,r2
        0x0000171e:    9001        ..      STR      r0,[sp,#4]
        0x00001720:    9802        ..      LDR      r0,[sp,#8]
        0x00001722:    2800        .(      CMP      r0,#0
        0x00001724:    db01        ..      BLT      0x172a ; _btod_edivd + 44
        0x00001726:    2000        .       MOVS     r0,#0
        0x00001728:    9001        ..      STR      r0,[sp,#4]
        0x0000172a:    9802        ..      LDR      r0,[sp,#8]
        0x0000172c:    0040        @.      LSLS     r0,r0,#1
        0x0000172e:    0840        @.      LSRS     r0,r0,#1
        0x00001730:    9002        ..      STR      r0,[sp,#8]
        0x00001732:    9801        ..      LDR      r0,[sp,#4]
        0x00001734:    9a02        ..      LDR      r2,[sp,#8]
        0x00001736:    0500        ..      LSLS     r0,r0,#20
        0x00001738:    0ad2        ..      LSRS     r2,r2,#11
        0x0000173a:    4310        .C      ORRS     r0,r0,r2
        0x0000173c:    4308        .C      ORRS     r0,r0,r1
        0x0000173e:    9902        ..      LDR      r1,[sp,#8]
        0x00001740:    9a03        ..      LDR      r2,[sp,#0xc]
        0x00001742:    0549        I.      LSLS     r1,r1,#21
        0x00001744:    0ad2        ..      LSRS     r2,r2,#11
        0x00001746:    4311        .C      ORRS     r1,r1,r2
        0x00001748:    e7a6        ..      B        0x1698 ; _btod_emul + 20
    $d
        0x0000174a:    0000        ..      DCW    0
        0x0000174c:    ffffc002    ....    DCD    4294950914
        0x00001750:    00003c01    .<..    DCD    15361
        0x00001754:    00003fff    .?..    DCD    16383
    $t
    .text
    __user_libspace
    __user_perproc_libspace
    __user_perthread_libspace
        0x00001758:    4800        .H      LDR      r0,[pc,#0] ; [0x175c] = 0x20000004
        0x0000175a:    4770        pG      BX       lr
    $d
        0x0000175c:    20000004    ...     DCD    536870916
    $t
    .text
    __user_setup_stackheap
        0x00001760:    4675        uF      MOV      r5,lr
        0x00001762:    f7fffff9    ....    BL       __user_libspace ; 0x1758
        0x00001766:    46ae        .F      MOV      lr,r5
        0x00001768:    0005        ..      MOVS     r5,r0
        0x0000176a:    4669        iF      MOV      r1,sp
        0x0000176c:    4653        SF      MOV      r3,r10
        0x0000176e:    08c0        ..      LSRS     r0,r0,#3
        0x00001770:    00c0        ..      LSLS     r0,r0,#3
        0x00001772:    4685        .F      MOV      sp,r0
        0x00001774:    b018        ..      ADD      sp,sp,#0x60
        0x00001776:    b520         .      PUSH     {r5,lr}
        0x00001778:    f7fefd2e    ....    BL       __user_initial_stackheap ; 0x1d8
        0x0000177c:    bc60        `.      POP      {r5,r6}
        0x0000177e:    2700        .'      MOVS     r7,#0
        0x00001780:    0849        I.      LSRS     r1,r1,#1
        0x00001782:    46b6        .F      MOV      lr,r6
        0x00001784:    2600        .&      MOVS     r6,#0
        0x00001786:    c5c0        ..      STM      r5!,{r6,r7}
        0x00001788:    c5c0        ..      STM      r5!,{r6,r7}
        0x0000178a:    c5c0        ..      STM      r5!,{r6,r7}
        0x0000178c:    c5c0        ..      STM      r5!,{r6,r7}
        0x0000178e:    c5c0        ..      STM      r5!,{r6,r7}
        0x00001790:    c5c0        ..      STM      r5!,{r6,r7}
        0x00001792:    c5c0        ..      STM      r5!,{r6,r7}
        0x00001794:    c5c0        ..      STM      r5!,{r6,r7}
        0x00001796:    3d40        @=      SUBS     r5,r5,#0x40
        0x00001798:    0049        I.      LSLS     r1,r1,#1
        0x0000179a:    468d        .F      MOV      sp,r1
        0x0000179c:    4770        pG      BX       lr
    .text
    exit
        0x0000179e:    4604        .F      MOV      r4,r0
        0x000017a0:    46c0        .F      MOV      r8,r8
        0x000017a2:    46c0        .F      MOV      r8,r8
        0x000017a4:    4620         F      MOV      r0,r4
        0x000017a6:    f7fefd06    ....    BL       __rt_exit ; 0x1b6
        0x000017aa:    0000        ..      MOVS     r0,r0
    .text
    strcmp
        0x000017ac:    4602        .F      MOV      r2,r0
        0x000017ae:    b570        p.      PUSH     {r4-r6,lr}
        0x000017b0:    430a        .C      ORRS     r2,r2,r1
        0x000017b2:    0792        ..      LSLS     r2,r2,#30
        0x000017b4:    d124        $.      BNE      0x1800 ; strcmp + 84
        0x000017b6:    4d1b        .M      LDR      r5,[pc,#108] ; [0x1824] = 0x1010101
        0x000017b8:    01ee        ..      LSLS     r6,r5,#7
        0x000017ba:    c804        ..      LDM      r0!,{r2}
        0x000017bc:    c908        ..      LDM      r1!,{r3}
        0x000017be:    1b54        T.      SUBS     r4,r2,r5
        0x000017c0:    4394        .C      BICS     r4,r4,r2
        0x000017c2:    4034        4@      ANDS     r4,r4,r6
        0x000017c4:    d017        ..      BEQ      0x17f6 ; strcmp + 74
        0x000017c6:    b2d0        ..      UXTB     r0,r2
        0x000017c8:    b2d9        ..      UXTB     r1,r3
        0x000017ca:    1a40        @.      SUBS     r0,r0,r1
        0x000017cc:    0621        !.      LSLS     r1,r4,#24
        0x000017ce:    4301        .C      ORRS     r1,r1,r0
        0x000017d0:    d110        ..      BNE      0x17f4 ; strcmp + 72
        0x000017d2:    b290        ..      UXTH     r0,r2
        0x000017d4:    b299        ..      UXTH     r1,r3
        0x000017d6:    1a40        @.      SUBS     r0,r0,r1
        0x000017d8:    0421        !.      LSLS     r1,r4,#16
        0x000017da:    4301        .C      ORRS     r1,r1,r0
        0x000017dc:    d10a        ..      BNE      0x17f4 ; strcmp + 72
        0x000017de:    0210        ..      LSLS     r0,r2,#8
        0x000017e0:    0219        ..      LSLS     r1,r3,#8
        0x000017e2:    0a00        ..      LSRS     r0,r0,#8
        0x000017e4:    0a09        ..      LSRS     r1,r1,#8
        0x000017e6:    1a40        @.      SUBS     r0,r0,r1
        0x000017e8:    0221        !.      LSLS     r1,r4,#8
        0x000017ea:    4301        .C      ORRS     r1,r1,r0
        0x000017ec:    d102        ..      BNE      0x17f4 ; strcmp + 72
        0x000017ee:    0e10        ..      LSRS     r0,r2,#24
        0x000017f0:    0e19        ..      LSRS     r1,r3,#24
        0x000017f2:    1a40        @.      SUBS     r0,r0,r1
        0x000017f4:    bd70        p.      POP      {r4-r6,pc}
        0x000017f6:    429a        .B      CMP      r2,r3
        0x000017f8:    d0df        ..      BEQ      0x17ba ; strcmp + 14
        0x000017fa:    ba10        ..      REV      r0,r2
        0x000017fc:    ba19        ..      REV      r1,r3
        0x000017fe:    e7f8        ..      B        0x17f2 ; strcmp + 70
        0x00001800:    7802        .x      LDRB     r2,[r0,#0]
        0x00001802:    780b        .x      LDRB     r3,[r1,#0]
        0x00001804:    1c40        @.      ADDS     r0,r0,#1
        0x00001806:    1c49        I.      ADDS     r1,r1,#1
        0x00001808:    2a00        .*      CMP      r2,#0
        0x0000180a:    d009        ..      BEQ      0x1820 ; strcmp + 116
        0x0000180c:    429a        .B      CMP      r2,r3
        0x0000180e:    d107        ..      BNE      0x1820 ; strcmp + 116
        0x00001810:    7802        .x      LDRB     r2,[r0,#0]
        0x00001812:    780b        .x      LDRB     r3,[r1,#0]
        0x00001814:    1c40        @.      ADDS     r0,r0,#1
        0x00001816:    1c49        I.      ADDS     r1,r1,#1
        0x00001818:    2a00        .*      CMP      r2,#0
        0x0000181a:    d001        ..      BEQ      0x1820 ; strcmp + 116
        0x0000181c:    429a        .B      CMP      r2,r3
        0x0000181e:    d0ef        ..      BEQ      0x1800 ; strcmp + 84
        0x00001820:    1ad0        ..      SUBS     r0,r2,r3
        0x00001822:    bd70        p.      POP      {r4-r6,pc}
    $d
        0x00001824:    01010101    ....    DCD    16843009
    $t
    i.__ARM_common_ll_muluu
    __ARM_common_ll_muluu
        0x00001828:    b5f8        ..      PUSH     {r3-r7,lr}
        0x0000182a:    0c04        ..      LSRS     r4,r0,#16
        0x0000182c:    b28b        ..      UXTH     r3,r1
        0x0000182e:    4626        &F      MOV      r6,r4
        0x00001830:    b282        ..      UXTH     r2,r0
        0x00001832:    435e        ^C      MULS     r6,r3,r6
        0x00001834:    4610        .F      MOV      r0,r2
        0x00001836:    4358        XC      MULS     r0,r3,r0
        0x00001838:    0c0d        ..      LSRS     r5,r1,#16
        0x0000183a:    0c37        7.      LSRS     r7,r6,#16
        0x0000183c:    0436        6.      LSLS     r6,r6,#16
        0x0000183e:    2100        .!      MOVS     r1,#0
        0x00001840:    1980        ..      ADDS     r0,r0,r6
        0x00001842:    4616        .F      MOV      r6,r2
        0x00001844:    4179        yA      ADCS     r1,r1,r7
        0x00001846:    436e        nC      MULS     r6,r5,r6
        0x00001848:    0c37        7.      LSRS     r7,r6,#16
        0x0000184a:    0436        6.      LSLS     r6,r6,#16
        0x0000184c:    1980        ..      ADDS     r0,r0,r6
        0x0000184e:    4626        &F      MOV      r6,r4
        0x00001850:    4179        yA      ADCS     r1,r1,r7
        0x00001852:    436e        nC      MULS     r6,r5,r6
        0x00001854:    1989        ..      ADDS     r1,r1,r6
        0x00001856:    bdf8        ..      POP      {r3-r7,pc}
    i.__ARM_fpclassify
    __ARM_fpclassify
        0x00001858:    0049        I.      LSLS     r1,r1,#1
        0x0000185a:    02ca        ..      LSLS     r2,r1,#11
        0x0000185c:    4310        .C      ORRS     r0,r0,r2
        0x0000185e:    d000        ..      BEQ      0x1862 ; __ARM_fpclassify + 10
        0x00001860:    2004        .       MOVS     r0,#4
        0x00001862:    0d4a        J.      LSRS     r2,r1,#21
        0x00001864:    d001        ..      BEQ      0x186a ; __ARM_fpclassify + 18
        0x00001866:    2201        ."      MOVS     r2,#1
        0x00001868:    4310        .C      ORRS     r0,r0,r2
        0x0000186a:    4a05        .J      LDR      r2,[pc,#20] ; [0x1880] = 0x7ff
        0x0000186c:    0d49        I.      LSRS     r1,r1,#21
        0x0000186e:    4291        .B      CMP      r1,r2
        0x00001870:    d101        ..      BNE      0x1876 ; __ARM_fpclassify + 30
        0x00001872:    2102        .!      MOVS     r1,#2
        0x00001874:    4308        .C      ORRS     r0,r0,r1
        0x00001876:    2801        .(      CMP      r0,#1
        0x00001878:    d100        ..      BNE      0x187c ; __ARM_fpclassify + 36
        0x0000187a:    2005        .       MOVS     r0,#5
        0x0000187c:    4770        pG      BX       lr
    $d
        0x0000187e:    0000        ..      DCW    0
        0x00001880:    000007ff    ....    DCD    2047
    $t
    i._is_digit
    _is_digit
        0x00001884:    4601        .F      MOV      r1,r0
        0x00001886:    2001        .       MOVS     r0,#1
        0x00001888:    3930        09      SUBS     r1,r1,#0x30
        0x0000188a:    290a        .)      CMP      r1,#0xa
        0x0000188c:    d300        ..      BCC      0x1890 ; _is_digit + 12
        0x0000188e:    2000        .       MOVS     r0,#0
        0x00001890:    4770        pG      BX       lr
        0x00001892:    0000        ..      MOVS     r0,r0
    locale$$code
    _get_lc_numeric
        0x00001894:    b510        ..      PUSH     {r4,lr}
        0x00001896:    2900        .)      CMP      r1,#0
        0x00001898:    d00a        ..      BEQ      0x18b0 ; _get_lc_numeric + 28
        0x0000189a:    7808        .x      LDRB     r0,[r1,#0]
        0x0000189c:    2800        .(      CMP      r0,#0
        0x0000189e:    d007        ..      BEQ      0x18b0 ; _get_lc_numeric + 28
        0x000018a0:    4805        .H      LDR      r0,[pc,#20] ; [0x18b8] = 0x10a
        0x000018a2:    4478        xD      ADD      r0,r0,pc
        0x000018a4:    f7ffff82    ....    BL       strcmp ; 0x17ac
        0x000018a8:    2800        .(      CMP      r0,#0
        0x000018aa:    d001        ..      BEQ      0x18b0 ; _get_lc_numeric + 28
        0x000018ac:    2000        .       MOVS     r0,#0
        0x000018ae:    bd10        ..      POP      {r4,pc}
        0x000018b0:    4802        .H      LDR      r0,[pc,#8] ; [0x18bc] = 0x102
        0x000018b2:    4478        xD      ADD      r0,r0,pc
        0x000018b4:    bd10        ..      POP      {r4,pc}
    $d
        0x000018b6:    0000        ..      DCW    0
        0x000018b8:    0000010a    ....    DCD    266
        0x000018bc:    00000102    ....    DCD    258
    $t
    x$fpl$printf1
    _printf_fp_dec
        0x000018c0:    b403        ..      PUSH     {r0,r1}
        0x000018c2:    4802        .H      LDR      r0,[pc,#8] ; [0x18cc] = 0xfffff4d5
        0x000018c4:    4478        xD      ADD      r0,r0,pc
        0x000018c6:    4684        .F      MOV      r12,r0
        0x000018c8:    bc03        ..      POP      {r0,r1}
        0x000018ca:    4760        `G      BX       r12
    $d
        0x000018cc:    fffff4d5    ....    DCD    4294964437
    $d.realdata
    .constdata
    uc_hextab
        0x000018d0:    33323130    0123    DCD    858927408
        0x000018d4:    37363534    4567    DCD    926299444
        0x000018d8:    42413938    89AB    DCD    1111570744
        0x000018dc:    46454443    CDEF    DCD    1178944579
        0x000018e0:    00583040    @0X.    DCD    5779520
    lc_hextab
        0x000018e4:    33323130    0123    DCD    858927408
        0x000018e8:    37363534    4567    DCD    926299444
        0x000018ec:    62613938    89ab    DCD    1650538808
        0x000018f0:    66656463    cdef    DCD    1717920867
        0x000018f4:    00783040    @0x.    DCD    7876672
    .constdata
    tenpwrs_x
        0x000018f8:    00004002    .@..    DCD    16386
        0x000018fc:    a0000000    ....    DCD    2684354560
        0x00001900:    00000000    ....    DCD    0
        0x00001904:    00004005    .@..    DCD    16389
        0x00001908:    c8000000    ....    DCD    3355443200
        0x0000190c:    00000000    ....    DCD    0
        0x00001910:    0000400c    .@..    DCD    16396
        0x00001914:    9c400000    ..@.    DCD    2621440000
        0x00001918:    00000000    ....    DCD    0
        0x0000191c:    00004019    .@..    DCD    16409
        0x00001920:    bebc2000    . ..    DCD    3200000000
        0x00001924:    00000000    ....    DCD    0
        0x00001928:    00004034    4@..    DCD    16436
        0x0000192c:    8e1bc9bf    ....    DCD    2384185791
        0x00001930:    04000000    ....    DCD    67108864
    tenpwrs_i
        0x00001934:    000040b5    .@..    DCD    16565
        0x00001938:    d0cf4b50    PK..    DCD    3503246160
        0x0000193c:    cfe20766    f...    DCD    3487696742
        0x00001940:    00000001    ....    DCD    1
        0x00001944:    0000416c    lA..    DCD    16748
        0x00001948:    aa51823e    >.Q.    DCD    2857468478
        0x0000194c:    34a7eedf    ...4    DCD    883420895
        0x00001950:    00000001    ....    DCD    1
        0x00001954:    000042d9    .B..    DCD    17113
        0x00001958:    e2a0b5dc    ....    DCD    3802183132
        0x0000195c:    971f303a    :0..    DCD    2535403578
        0x00001960:    ffffffff    ....    DCD    4294967295
        0x00001964:    000045b4    .E..    DCD    17844
        0x00001968:    c8a025fd    .%..    DCD    3365938685
        0x0000196c:    4fc1a3e9    ...O    DCD    1338090473
        0x00001970:    ffffffff    ....    DCD    4294967295
        0x00001974:    00003fff    .?..    DCD    16383
        0x00001978:    80000000    ....    DCD    2147483648
        0x0000197c:    00000000    ....    DCD    0
        0x00001980:    00003fff    .?..    DCD    16383
        0x00001984:    80000000    ....    DCD    2147483648
        0x00001988:    00000000    ....    DCD    0
    Region$$Table$$Base
        0x0000198c:    000019c8    ....    DCD    6600
        0x00001990:    20000000    ...     DCD    536870912
        0x00001994:    00000004    ....    DCD    4
        0x00001998:    00000104    ....    DCD    260
        0x0000199c:    000019cc    ....    DCD    6604
        0x000019a0:    20000004    ...     DCD    536870916
        0x000019a4:    00000464    d...    DCD    1124
        0x000019a8:    00000120     ...    DCD    288
    locale$$data
    Region$$Table$$Limit
        0x000019ac:    0000001c    ....    DCD    28
    __lcnum_c_name
        0x000019b0:    00000043    C...    DCD    67
        0x000019b4:    fffffff8    ....    DCD    4294967288
    __lcnum_c_start
        0x000019b8:    0000000c    ....    DCD    12
        0x000019bc:    0000000e    ....    DCD    14
        0x000019c0:    0000000f    ....    DCD    15
    __lcnum_c_point
        0x000019c4:    002e        ..      DCW    46
    __lcnum_c_thousands
        0x000019c6:    00          .       DCB    0
    __lcnum_c_grouping
        0x000019c7:    00          .       DCB    0
    __lcnum_c_end

** Section #2 'ER_RW' (SHT_PROGBITS) [SHF_ALLOC + SHF_WRITE]
    Size   : 4 bytes (alignment 4)
    Address: 0x20000000


** Section #3 'ER_ZI' (SHT_NOBITS) [SHF_ALLOC + SHF_WRITE]
    Size   : 1124 bytes (alignment 8)
    Address: 0x20000004


** Section #4 '.debug_abbrev' (SHT_PROGBITS)
    Size   : 1476 bytes


** Section #5 '.debug_frame' (SHT_PROGBITS)
    Size   : 1988 bytes


** Section #6 '.debug_info' (SHT_PROGBITS)
    Size   : 3048 bytes


** Section #7 '.debug_line' (SHT_PROGBITS)
    Size   : 1016 bytes


** Section #8 '.debug_loc' (SHT_PROGBITS)
    Size   : 576 bytes


** Section #9 '.debug_macinfo' (SHT_PROGBITS)
    Size   : 2492 bytes


** Section #10 '.debug_pubnames' (SHT_PROGBITS)
    Size   : 313 bytes


** Section #11 '.symtab' (SHT_SYMTAB)
    Size   : 7552 bytes (alignment 4)
    String table #12 '.strtab'
    Last local symbol no. 290

    Symbol table .symtab (471 symbols, 290 local)

      #  Symbol Name                Value      Bind  Sec  Type  Vis  Size
    ========================================================================

      1  $d.realdata                0x00000000   Lc    1   --   De 
      2  $t                         0x000000c0   Lc    1   --   De 
      3  $d                         0x000000fc   Lc    1   --   De 
      4  $t                         0x00000104   Lc    1   --   De 
      5  $d                         0x000001e2   Lc    1   --   De 
      6  $t                         0x000001fc   Lc    1   --   De 
      7  $d                         0x00000222   Lc    1   --   De 
      8  $t                         0x00000228   Lc    1   --   De 
      9  $d                         0x000002a0   Lc    1   --   De 
     10  $t                         0x000002a8   Lc    1   --   De 
     11  $d                         0x000002c2   Lc    1   --   De 
     12  $t                         0x000002c8   Lc    1   --   De 
     13  $d                         0x000002ec   Lc    1   --   De 
     14  $t                         0x000002f0   Lc    1   --   De 
     15  $d                         0x000002fc   Lc    1   --   De 
     16  $t                         0x00000300   Lc    1   --   De 
     17  $d                         0x00000476   Lc    1   --   De 
     18  $t                         0x00000608   Lc    1   --   De 
     19  $d                         0x00000702   Lc    1   --   De 
     20  $t                         0x00000714   Lc    1   --   De 
     21  $d                         0x00000792   Lc    1   --   De 
     22  $t                         0x00000798   Lc    1   --   De 
     23  $d                         0x000008ee   Lc    1   --   De 
     24  $t                         0x000008f4   Lc    1   --   De 
     25  $d                         0x00000af2   Lc    1   --   De 
     26  $t                         0x00000af8   Lc    1   --   De 
     27  $d                         0x00000ff6   Lc    1   --   De 
     28  $t                         0x00001004   Lc    1   --   De 
     29  $d                         0x0000102e   Lc    1   --   De 
     30  $t                         0x00001034   Lc    1   --   De 
     31  $d                         0x0000108e   Lc    1   --   De 
     32  $t                         0x00001094   Lc    1   --   De 
     33  $d                         0x000010c0   Lc    1   --   De 
     34  $t                         0x000010c4   Lc    1   --   De 
     35  $d                         0x000011b4   Lc    1   --   De 
     36  $t                         0x000011c4   Lc    1   --   De 
     37  $d                         0x0000128c   Lc    1   --   De 
     38  $t                         0x00001290   Lc    1   --   De 
     39  $d                         0x0000174a   Lc    1   --   De 
     40  $t                         0x00001758   Lc    1   --   De 
     41  $d                         0x0000175c   Lc    1   --   De 
     42  $t                         0x00001760   Lc    1   --   De 
     43  $d                         0x00001824   Lc    1   --   De 
     44  $t                         0x00001828   Lc    1   --   De 
     45  $d                         0x0000187e   Lc    1   --   De 
     46  $t                         0x00001884   Lc    1   --   De 
     47  $d                         0x000018b6   Lc    1   --   De 
     48  $t                         0x000018c0   Lc    1   --   De 
     49  $d                         0x000018cc   Lc    1   --   De 
     50  $d.realdata                0x000018d0   Lc    1   --   De 
     51  $d.realdata                0x20000000   Lc    2   --   De 
     52  $d.realdata                0x20000004   Lc    3   --   De 
     53  startup_AMY.s              0x00000000   Lc  Abs  File  De 
     54  STACK                      0x20000268   Lc    3  Sect  De   0x200
     55  Stack_Mem                  0x20000268   Lc    3  Data  De   0x200
     56  __initial_sp               0x20000468   Lc    3  Data  De 
     57  HEAP                       0x20000068   Lc    3  Sect  De   0x200
     58  Heap_Mem                   0x20000068   Lc    3  Data  De   0x200
     59  RESET                      0x00000000   Lc    1  Sect  De   0xc0
     60  .ARM.__at_0x02FC           0x000002fc   Lc    1  Sect  De   0x4
     61  .text                      0x000001c4   Lc    1  Sect  De   0x38
     62  ..\\..\\app\\hello_test.c  0x00000000   Lc  Abs  File  De 
     63  ..\..\app\hello_test.c     0x00000000   Lc  Abs  File  De 
     64  .text                      0x00000300   Lc    1  Sect  De 
     65  ..\..\core\AMY\Retarget.c  0x00000000   Lc  Abs  File  De 
     66  .text                      0x000001fc   Lc    1  Sect  De 
     67  .data                      0x20000000   Lc    2  Sect  De   0x4
     68  ..\\..\\core\\AMY\\system_AMY.c
                                    0x00000000   Lc  Abs  File  De 
     69  ..\..\core\AMY\system_AMY.c
                                    0x00000000   Lc  Abs  File  De 
     70  .text                      0x00000228   Lc    1  Sect  De 
     71  ..\\..\\core\\uart\\uart.c 0x00000000   Lc  Abs  File  De 
     72  ..\..\core\uart\uart.c     0x00000000   Lc  Abs  File  De 
     73  .text                      0x0000022c   Lc    1  Sect  De 
     74  dc.s                       0x00000000   Lc  Abs  File  De 
     75  ../../angel/sys.s          0x00000000   Lc  Abs  File  De 
     76  .text                      0x000002a8   Lc    1  Sect  De   0x2
     77  ../../printf.c             0x00000000   Lc  Abs  File  De 
     78  ../../printf.c             0x00000000   Lc  Abs  File  De 
     79  ../../printf.c             0x00000000   Lc  Abs  File  De 
     80  .text                      0x000002ac   Lc    1  Sect  De 
     81  ../../printf.c             0x00000000   Lc  Abs  File  De 
     82  .text                      0x000002c8   Lc    1  Sect  De 
     83  ../../printf.c             0x00000000   Lc  Abs  File  De 
     84  ../../printf.c             0x00000000   Lc  Abs  File  De 
     85  .text                      0x00000608   Lc    1  Sect  De 
     86  ../../printf.c             0x00000000   Lc  Abs  File  De 
     87  .text                      0x00000654   Lc    1  Sect  De 
     88  ../../printf.c             0x00000000   Lc  Abs  File  De 
     89  .text                      0x000006a8   Lc    1  Sect  De 
     90  ../../printf.c             0x00000000   Lc  Abs  File  De 
     91  ../../printf.c             0x00000000   Lc  Abs  File  De 
     92  ../../printf.c             0x00000000   Lc  Abs  File  De 
     93  ../../printf.c             0x00000000   Lc  Abs  File  De 
     94  ../../printf.c             0x00000000   Lc  Abs  File  De 
     95  .text                      0x00000714   Lc    1  Sect  De 
     96  _printf_hex_common         0x00000715   Lc    1  Code  De 
     97  .constdata                 0x000018d0   Lc    1  Sect  De   0x28
     98  uc_hextab                  0x000018d0   Lc    1  Data  De   0x14
     99  lc_hextab                  0x000018e4   Lc    1  Data  De   0x14
    100  ../../printf.c             0x00000000   Lc  Abs  File  De 
    101  ../../printf.c             0x00000000   Lc  Abs  File  De 
    102  ../../printf.c             0x00000000   Lc  Abs  File  De 
    103  ../../printf.c             0x00000000   Lc  Abs  File  De 
    104  ../../printf.c             0x00000000   Lc  Abs  File  De 
    105  ../../printf.c             0x00000000   Lc  Abs  File  De 
    106  .text                      0x00000798   Lc    1  Sect  De 
    107  i._is_digit                0x00001884   Lc    1  Sect  De 
    108  ../../printf.c             0x00000000   Lc  Abs  File  De 
    109  ../../printf.c             0x00000000   Lc  Abs  File  De 
    110  ../../printf.c             0x00000000   Lc  Abs  File  De 
    111  ../../printf_percent.s     0x00000000   Lc  Abs  File  De 
    112  .ARM.Collect$$_printf_percent$$00000013
                                    0x00000170   Lc    1  Sect  De   0xa
    113  ../../printf_percent.s     0x00000000   Lc  Abs  File  De 
    114  .ARM.Collect$$_printf_percent$$00000014
                                    0x0000017a   Lc    1  Sect  De   0xa
    115  ../../printf_percent.s     0x00000000   Lc  Abs  File  De 
    116  .ARM.Collect$$_printf_percent$$0000000C
                                    0x00000166   Lc    1  Sect  De   0xa
    117  ../../printf_percent.s     0x00000000   Lc  Abs  File  De 
    118  .ARM.Collect$$_printf_percent$$00000002
                                    0x0000013e   Lc    1  Sect  De   0xa
    119  ../../printf_percent.s     0x00000000   Lc  Abs  File  De 
    120  .ARM.Collect$$_printf_percent$$00000009
                                    0x0000015c   Lc    1  Sect  De   0xa
    121  ../../printf_percent.s     0x00000000   Lc  Abs  File  De 
    122  .ARM.Collect$$_printf_percent$$00000003
                                    0x00000148   Lc    1  Sect  De   0xa
    123  ../../printf_percent.s     0x00000000   Lc  Abs  File  De 
    124  .ARM.Collect$$_printf_percent$$00000004
                                    0x00000152   Lc    1  Sect  De   0xa
    125  ../../printf_percent.s     0x00000000   Lc  Abs  File  De 
    126  .ARM.Collect$$_printf_percent$$00000000
                                    0x0000013c   Lc    1  Sect  De   0x2
    127  ../../string.c             0x00000000   Lc  Abs  File  De 
    128  .text                      0x000008a8   Lc    1  Sect  De 
    129  ../../division.s           0x00000000   Lc  Abs  File  De 
    130  .text                      0x000008f4   Lc    1  Sect  De   0x15a
    131  ../../division.s           0x00000000   Lc  Abs  File  De 
    132  ../../heapaux.c            0x00000000   Lc  Abs  File  De 
    133  .text                      0x000002f0   Lc    1  Sect  De 
    134  ../../angel/startup.s      0x00000000   Lc  Abs  File  De 
    135  !!!main                    0x000000c0   Lc    1  Sect  De   0x8
    136  ../../misc.s               0x00000000   Lc  Abs  File  De 
    137  ../../cfplib/fflt.c        0x00000000   Lc  Abs  File  De 
    138  .text                      0x00000a4e   Lc    1  Sect  De 
    139  ../../cfplib/f2d.c         0x00000000   Lc  Abs  File  De 
    140  .text                      0x00000aa8   Lc    1  Sect  De 
    141  ../../cfplib/fflt.c        0x00000000   Lc  Abs  File  De 
    142  .text                      0x00000af8   Lc    1  Sect  De 
    143  ../../printf1.s            0x00000000   Lc  Abs  File  De 
    144  x$fpl$printf1              0x000018c0   Lc    1  Sect  De   0x10
    145  ../../angel/kernel.s       0x00000000   Lc  Abs  File  De 
    146  .ARM.Collect$$rtentry$$00000000
                                    0x000001a4   Lc    1  Sect  De 
    147  ../../angel/rt.s           0x00000000   Lc  Abs  File  De 
    148  ../../angel/rt.s           0x00000000   Lc  Abs  File  De 
    149  ../../printf.c             0x00000000   Lc  Abs  File  De 
    150  .text                      0x00000b56   Lc    1  Sect  De 
    151  ../../printf.c             0x00000000   Lc  Abs  File  De 
    152  .text                      0x00000c04   Lc    1  Sect  De 
    153  _fp_digits                 0x00000c07   Lc    1  Code  De   0x196
    154  ../../printf.c             0x00000000   Lc  Abs  File  De 
    155  .text                      0x00001004   Lc    1  Sect  De 
    156  _printf_input_char         0x00001005   Lc    1  Code  De   0xa
    157  ../../printf.c             0x00000000   Lc  Abs  File  De 
    158  .text                      0x00001034   Lc    1  Sect  De 
    159  ../../printf.c             0x00000000   Lc  Abs  File  De 
    160  .text                      0x0000103e   Lc    1  Sect  De 
    161  ../../printf.c             0x00000000   Lc  Abs  File  De 
    162  .text                      0x0000106c   Lc    1  Sect  De 
    163  ../../printf_percent.s     0x00000000   Lc  Abs  File  De 
    164  .ARM.Collect$$_printf_percent$$00000017
                                    0x00000184   Lc    1  Sect  De   0x4
    165  ../../division.c           0x00000000   Lc  Abs  File  De 
    166  .text                      0x00001094   Lc    1  Sect  De 
    167  ../../usenofp.s            0x00000000   Lc  Abs  File  De 
    168  x$fpl$usenofp              0x000002f6   Lc    1  Sect  De 
    169  ../../angel/kernel.s       0x00000000   Lc  Abs  File  De 
    170  .ARM.Collect$$rtentry$$00000002
                                    0x000001a4   Lc    1  Sect  De 
    171  .ARM.Collect$$rtentry$$00000009
                                    0x000001aa   Lc    1  Sect  De 
    172  .ARM.Collect$$rtentry$$0000000A
                                    0x000001aa   Lc    1  Sect  De   0x4
    173  .ARM.Collect$$rtentry$$0000000C
                                    0x000001ae   Lc    1  Sect  De 
    174  .ARM.Collect$$rtentry$$0000000D
                                    0x000001ae   Lc    1  Sect  De   0x8
    175  ../../angel/kernel.s       0x00000000   Lc  Abs  File  De 
    176  .ARM.Collect$$rtentry$$00000004
                                    0x000001a4   Lc    1  Sect  De   0x6
    177  ../../angel/rt.s           0x00000000   Lc  Abs  File  De 
    178  ../../angel/rt.s           0x00000000   Lc  Abs  File  De 
    179  ../../angel/rt.s           0x00000000   Lc  Abs  File  De 
    180  .text                      0x000010bc   Lc    1  Sect  De   0x8
    181  ../../division.c           0x00000000   Lc  Abs  File  De 
    182  .text                      0x000010c4   Lc    1  Sect  De 
    183  ../../printf.c             0x00000000   Lc  Abs  File  De 
    184  .text                      0x00001140   Lc    1  Sect  De 
    185  ../../printf.c             0x00000000   Lc  Abs  File  De 
    186  ../../bigflt.c             0x00000000   Lc  Abs  File  De 
    187  .text                      0x000011c4   Lc    1  Sect  De 
    188  .constdata                 0x000018f8   Lc    1  Sect  De   0x94
    189  tenpwrs_x                  0x000018f8   Lc    1  Data  De   0x3c
    190  tenpwrs_i                  0x00001934   Lc    1  Data  De   0x40
    191  ../../btod.c               0x00000000   Lc  Abs  File  De 
    192  .text                      0x00001290   Lc    1  Sect  De 
    193  btod_internal_mul          0x000012d1   Lc    1  Code  De   0x1c6
    194  btod_internal_div          0x00001497   Lc    1  Code  De   0x1ee
    195  i.__ARM_common_ll_muluu    0x00001828   Lc    1  Sect  De 
    196  ../../locale.s             0x00000000   Lc  Abs  File  De 
    197  locale$$data               0x000019ac   Lc    1  Sect  De   0x1c
    198  __lcnum_c_name             0x000019b0   Lc    1  Data  De   0x2
    199  __lcnum_c_start            0x000019b8   Lc    1  Data  De 
    200  __lcnum_c_point            0x000019c4   Lc    1  Data  De 
    201  __lcnum_c_thousands        0x000019c6   Lc    1  Data  De 
    202  __lcnum_c_grouping         0x000019c7   Lc    1  Data  De 
    203  __lcnum_c_end              0x000019c8   Lc    1  Data  De 
    204  locale$$code               0x00001894   Lc    1  Sect  De   0x2c
    205  ../../cfplib/ieee_status.c 0x00000000   Lc  Abs  File  De 
    206  ../../fpclassify.c         0x00000000   Lc  Abs  File  De 
    207  i.__ARM_fpclassify         0x00001858   Lc    1  Sect  De 
    208  ../../angel/sys.s          0x00000000   Lc  Abs  File  De 
    209  .text                      0x00001758   Lc    1  Sect  De   0x8
    210  .bss                       0x20000004   Lc    3  Sect  De   0x60
    211  ../../angel/sys.s          0x00000000   Lc  Abs  File  De 
    212  .text                      0x00001760   Lc    1  Sect  De   0x3e
    213  ../../stdlib.c             0x00000000   Lc  Abs  File  De 
    214  .text                      0x0000179e   Lc    1  Sect  De 
    215  ../../signal.c             0x00000000   Lc  Abs  File  De 
    216  ../../signal.c             0x00000000   Lc  Abs  File  De 
    217  ../../string.c             0x00000000   Lc  Abs  File  De 
    218  .text                      0x000017ac   Lc    1  Sect  De 
    219  ../../angel/boardlib.s     0x00000000   Lc  Abs  File  De 
    220  ../../angel/boardlib.s     0x00000000   Lc  Abs  File  De 
    221  ../../angel/boardlib.s     0x00000000   Lc  Abs  File  De 
    222  ../../libinit.s            0x00000000   Lc  Abs  File  De 
    223  .ARM.Collect$$libinit$$00000000
                                    0x00000188   Lc    1  Sect  De   0x6
    224  ../../libinit.s            0x00000000   Lc  Abs  File  De 
    225  .ARM.Collect$$libinit$$00000006
                                    0x0000018e   Lc    1  Sect  De 
    226  .ARM.Collect$$libinit$$00000008
                                    0x0000018e   Lc    1  Sect  De 
    227  .ARM.Collect$$libinit$$0000000A
                                    0x0000018e   Lc    1  Sect  De 
    228  .ARM.Collect$$libinit$$0000000B
                                    0x0000018e   Lc    1  Sect  De   0x6
    229  .ARM.Collect$$libinit$$0000000D
                                    0x00000194   Lc    1  Sect  De 
    230  .ARM.Collect$$libinit$$0000000F
                                    0x00000194   Lc    1  Sect  De 
    231  .ARM.Collect$$libinit$$00000011
                                    0x00000194   Lc    1  Sect  De 
    232  .ARM.Collect$$libinit$$00000012
                                    0x00000194   Lc    1  Sect  De   0xa
    233  .ARM.Collect$$libinit$$00000013
                                    0x0000019e   Lc    1  Sect  De 
    234  .ARM.Collect$$libinit$$00000015
                                    0x0000019e   Lc    1  Sect  De 
    235  .ARM.Collect$$libinit$$00000017
                                    0x0000019e   Lc    1  Sect  De 
    236  .ARM.Collect$$libinit$$00000019
                                    0x0000019e   Lc    1  Sect  De 
    237  .ARM.Collect$$libinit$$0000001B
                                    0x0000019e   Lc    1  Sect  De 
    238  .ARM.Collect$$libinit$$0000001D
                                    0x0000019e   Lc    1  Sect  De 
    239  .ARM.Collect$$libinit$$0000001F
                                    0x0000019e   Lc    1  Sect  De 
    240  .ARM.Collect$$libinit$$00000021
                                    0x0000019e   Lc    1  Sect  De 
    241  .ARM.Collect$$libinit$$00000028
                                    0x0000019e   Lc    1  Sect  De 
    242  .ARM.Collect$$libinit$$0000002A
                                    0x0000019e   Lc    1  Sect  De 
    243  .ARM.Collect$$libinit$$0000002C
                                    0x0000019e   Lc    1  Sect  De 
    244  .ARM.Collect$$libinit$$0000002E
                                    0x0000019e   Lc    1  Sect  De 
    245  .ARM.Collect$$libinit$$0000002F
                                    0x0000019e   Lc    1  Sect  De   0x2
    246  ../../angel/sys.s          0x00000000   Lc  Abs  File  De 
    247  ../../angel/kernel.s       0x00000000   Lc  Abs  File  De 
    248  .ARM.Collect$$rtexit$$00000000
                                    0x000001b6   Lc    1  Sect  De   0x2
    249  ../../angel/rt.s           0x00000000   Lc  Abs  File  De 
    250  ../../signal.c             0x00000000   Lc  Abs  File  De 
    251  ../../signal.c             0x00000000   Lc  Abs  File  De 
    252  ../../armsys.c             0x00000000   Lc  Abs  File  De 
    253  ../../cfplib/fpinit.c      0x00000000   Lc  Abs  File  De 
    254  ../../angel/kernel.s       0x00000000   Lc  Abs  File  De 
    255  .ARM.Collect$$rtexit$$00000002
                                    0x000001b8   Lc    1  Sect  De 
    256  .ARM.Collect$$rtexit$$00000003
                                    0x000001b8   Lc    1  Sect  De   0x4
    257  .ARM.Collect$$rtexit$$00000004
                                    0x000001bc   Lc    1  Sect  De   0x6
    258  ../../signal.c             0x00000000   Lc  Abs  File  De 
    259  ../../signal.c             0x00000000   Lc  Abs  File  De 
    260  ../../armsys.c             0x00000000   Lc  Abs  File  De 
    261  ../../armsys.c             0x00000000   Lc  Abs  File  De 
    262  ../../angel/sysapp.c       0x00000000   Lc  Abs  File  De 
    263  ../../heapalloc.c          0x00000000   Lc  Abs  File  De 
    264  ../../signal.c             0x00000000   Lc  Abs  File  De 
    265  ../../signal.c             0x00000000   Lc  Abs  File  De 
    266  ../../signal.s             0x00000000   Lc  Abs  File  De 
    267  ../../angel/boardlib.s     0x00000000   Lc  Abs  File  De 
    268  ../../libinit.s            0x00000000   Lc  Abs  File  De 
    269  .ARM.Collect$$libshutdown$$00000000
                                    0x000001a0   Lc    1  Sect  De   0x2
    270  ../../signal.c             0x00000000   Lc  Abs  File  De 
    271  ../../signal.c             0x00000000   Lc  Abs  File  De 
    272  ../../signal.c             0x00000000   Lc  Abs  File  De 
    273  ../../signal.c             0x00000000   Lc  Abs  File  De 
    274  ../../signal.c             0x00000000   Lc  Abs  File  De 
    275  ../../signal.c             0x00000000   Lc  Abs  File  De 
    276  ../../signal.c             0x00000000   Lc  Abs  File  De 
    277  ../../signal.c             0x00000000   Lc  Abs  File  De 
    278  ../../libinit.s            0x00000000   Lc  Abs  File  De 
    279  .ARM.Collect$$libshutdown$$00000003
                                    0x000001a2   Lc    1  Sect  De 
    280  .ARM.Collect$$libshutdown$$00000006
                                    0x000001a2   Lc    1  Sect  De 
    281  .ARM.Collect$$libshutdown$$00000009
                                    0x000001a2   Lc    1  Sect  De 
    282  .ARM.Collect$$libshutdown$$0000000B
                                    0x000001a2   Lc    1  Sect  De 
    283  .ARM.Collect$$libshutdown$$0000000E
                                    0x000001a2   Lc    1  Sect  De 
    284  .ARM.Collect$$libshutdown$$0000000F
                                    0x000001a2   Lc    1  Sect  De   0x2
    285  ../../angel/scatterp.s     0x00000000   Lc  Abs  File  De 
    286  !!!scatter                 0x000000c8   Lc    1  Sect  De   0x3c
    287  ../../angel/handlers.s     0x00000000   Lc  Abs  File  De 
    288  !!handler_copy             0x00000104   Lc    1  Sect  De   0x1a
    289  ../../angel/handlers.s     0x00000000   Lc  Abs  File  De 
    290  !!handler_zi               0x00000120   Lc    1  Sect  De   0x1c
    291  BuildAttributes$$THM_ISAv3M$S$PE$A:L22$X:L11$S22$IEEE1$IW$USESV6$~STKCKD$USESV7$~SHL$OTIME$ROPI$IEEEJ$EBA8$UX$STANDARDLIB$REQ8$PRES8$EABIv2
                                    0x00000000   Gb  Abs   --   Hi 
    292  __ARM_use_no_argv          0x00000000   Gb  Abs   --   Hi 
    293  __Vectors                  0x00000000   Gb    1  Data  Hi   0x4
    294  _printf_flags              0x00000000   Gb  Abs   --   De 
    295  _printf_return_value       0x00000000   Gb  Abs   --   De 
    296  _printf_sizespec           0x00000000   Gb  Abs   --   De 
    297  _printf_widthprec          0x00000000   Gb  Abs   --   Hi 
    298  __Vectors_End              0x000000c0   Gb    1  Data  Hi 
    299  __Vectors_Size             0x000000c0   Gb  Abs   --   Hi 
    300  __main                     0x000000c1   Gb    1  Code  Hi   0x8
    301  __scatterload              0x000000c9   Gb    1  Code  Hi 
    302  __scatterload_rt2          0x000000c9   Gb    1  Code  Hi   0x34
    303  __scatterload_rt2_thumb_only
                                    0x000000c9   Gb    1  Code  Hi 
    304  __scatterload_null         0x000000d9   Gb    1  Code  Hi 
    305  __scatterload_copy         0x00000105   Gb    1  Code  Hi   0x1a
    306  __scatterload_zeroinit     0x00000121   Gb    1  Code  Hi   0x1c
    307  _printf_percent            0x0000013d   Gb    1  Code  Hi 
    308  _printf_p                  0x0000013f   Gb    1  Code  Hi 
    309  _printf_f                  0x00000149   Gb    1  Code  Hi 
    310  _printf_e                  0x00000153   Gb    1  Code  Hi 
    311  _printf_d                  0x0000015d   Gb    1  Code  Hi 
    312  _printf_x                  0x00000167   Gb    1  Code  Hi 
    313  _printf_c                  0x00000171   Gb    1  Code  Hi 
    314  _printf_s                  0x0000017b   Gb    1  Code  Hi 
    315  _printf_percent_end        0x00000185   Gb    1  Code  De 
    316  __rt_lib_init              0x00000189   Gb    1  Code  De 
    317  __rt_lib_init_heap_1       0x0000018f   Gb    1  Code  Hi 
    318  __rt_lib_init_lc_common    0x0000018f   Gb    1  Code  Hi 
    319  __rt_lib_init_rand_1       0x0000018f   Gb    1  Code  Hi 
    320  __rt_lib_init_user_alloc_1 0x0000018f   Gb    1  Code  Hi 
    321  __rt_lib_init_lc_collate_1 0x00000195   Gb    1  Code  Hi 
    322  __rt_lib_init_lc_ctype_1   0x00000195   Gb    1  Code  Hi 
    323  __rt_lib_init_lc_monetary_1
                                    0x00000195   Gb    1  Code  Hi 
    324  __rt_lib_init_lc_numeric_2 0x00000195   Gb    1  Code  Hi 
    325  __rt_lib_init_alloca_1     0x0000019f   Gb    1  Code  Hi 
    326  __rt_lib_init_argv_1       0x0000019f   Gb    1  Code  Hi 
    327  __rt_lib_init_atexit_1     0x0000019f   Gb    1  Code  Hi 
    328  __rt_lib_init_clock_1      0x0000019f   Gb    1  Code  Hi 
    329  __rt_lib_init_cpp_1        0x0000019f   Gb    1  Code  Hi 
    330  __rt_lib_init_exceptions_1 0x0000019f   Gb    1  Code  Hi 
    331  __rt_lib_init_fp_trap_1    0x0000019f   Gb    1  Code  Hi 
    332  __rt_lib_init_getenv_1     0x0000019f   Gb    1  Code  Hi 
    333  __rt_lib_init_lc_numeric_1 0x0000019f   Gb    1  Code  Hi 
    334  __rt_lib_init_lc_time_1    0x0000019f   Gb    1  Code  Hi 
    335  __rt_lib_init_return       0x0000019f   Gb    1  Code  Hi 
    336  __rt_lib_init_signal_1     0x0000019f   Gb    1  Code  Hi 
    337  __rt_lib_init_stdio_1      0x0000019f   Gb    1  Code  Hi 
    338  __rt_lib_shutdown          0x000001a1   Gb    1  Code  De 
    339  __rt_lib_shutdown_fp_trap_1
                                    0x000001a3   Gb    1  Code  Hi 
    340  __rt_lib_shutdown_heap_1   0x000001a3   Gb    1  Code  Hi 
    341  __rt_lib_shutdown_return   0x000001a3   Gb    1  Code  Hi 
    342  __rt_lib_shutdown_signal_1 0x000001a3   Gb    1  Code  Hi 
    343  __rt_lib_shutdown_stdio_1  0x000001a3   Gb    1  Code  Hi 
    344  __rt_lib_shutdown_user_alloc_1
                                    0x000001a3   Gb    1  Code  Hi 
    345  __rt_entry                 0x000001a5   Gb    1  Code  Hi 
    346  __rt_entry_presh_1         0x000001a5   Gb    1  Code  Hi 
    347  __rt_entry_sh              0x000001a5   Gb    1  Code  Hi 
    348  __rt_entry_li              0x000001ab   Gb    1  Code  Hi 
    349  __rt_entry_postsh_1        0x000001ab   Gb    1  Code  Hi 
    350  __rt_entry_main            0x000001af   Gb    1  Code  Hi 
    351  __rt_entry_postli_1        0x000001af   Gb    1  Code  Hi 
    352  __rt_exit                  0x000001b7   Gb    1  Code  De 
    353  __rt_exit_ls               0x000001b9   Gb    1  Code  Hi 
    354  __rt_exit_prels_1          0x000001b9   Gb    1  Code  Hi 
    355  __rt_exit_exit             0x000001bd   Gb    1  Code  Hi 
    356  Reset_Handler              0x000001c5   Wk    1  Code  Hi   0x8
    357  NMI_Handler                0x000001cd   Wk    1  Code  Hi   0x2
    358  HardFault_Handler          0x000001cf   Wk    1  Code  Hi   0x2
    359  SVC_Handler                0x000001d1   Wk    1  Code  Hi   0x2
    360  PendSV_Handler             0x000001d3   Wk    1  Code  Hi   0x2
    361  SysTick_Handler            0x000001d5   Wk    1  Code  Hi   0x2
    362  APBKEY_IRQHandler          0x000001d7   Wk    1  Code  Hi 
    363  GPIO_IRQHandler            0x000001d7   Wk    1  Code  Hi 
    364  IIC_IRQHandler             0x000001d7   Wk    1  Code  Hi 
    365  PWM_IRQHandler             0x000001d7   Wk    1  Code  Hi 
    366  RSV0_IRQHandler            0x000001d7   Wk    1  Code  Hi 
    367  RSV10_IRQHandler           0x000001d7   Wk    1  Code  Hi 
    368  RSV11_IRQHandler           0x000001d7   Wk    1  Code  Hi 
    369  RSV12_IRQHandler           0x000001d7   Wk    1  Code  Hi 
    370  RSV13_IRQHandler           0x000001d7   Wk    1  Code  Hi 
    371  RSV14_IRQHandler           0x000001d7   Wk    1  Code  Hi 
    372  RSV15_IRQHandler           0x000001d7   Wk    1  Code  Hi 
    373  RSV16_IRQHandler           0x000001d7   Wk    1  Code  Hi 
    374  RSV17_IRQHandler           0x000001d7   Wk    1  Code  Hi 
    375  RSV18_IRQHandler           0x000001d7   Wk    1  Code  Hi 
    376  RSV19_IRQHandler           0x000001d7   Wk    1  Code  Hi 
    377  RSV1_IRQHandler            0x000001d7   Wk    1  Code  Hi 
    378  RSV20_IRQHandler           0x000001d7   Wk    1  Code  Hi 
    379  RSV21_IRQHandler           0x000001d7   Wk    1  Code  Hi 
    380  RSV22_IRQHandler           0x000001d7   Wk    1  Code  Hi 
    381  RSV23_IRQHandler           0x000001d7   Wk    1  Code  Hi 
    382  RSV24_IRQHandler           0x000001d7   Wk    1  Code  Hi 
    383  RSV2_IRQHandler            0x000001d7   Wk    1  Code  Hi 
    384  RSV3_IRQHandler            0x000001d7   Wk    1  Code  Hi 
    385  RSV4_IRQHandler            0x000001d7   Wk    1  Code  Hi 
    386  RSV5_IRQHandler            0x000001d7   Wk    1  Code  Hi 
    387  RSV6_IRQHandler            0x000001d7   Wk    1  Code  Hi 
    388  RSV7_IRQHandler            0x000001d7   Wk    1  Code  Hi 
    389  RSV8_IRQHandler            0x000001d7   Wk    1  Code  Hi 
    390  RSV9_IRQHandler            0x000001d7   Wk    1  Code  Hi 
    391  STN_IRQHandler             0x000001d7   Wk    1  Code  Hi 
    392  UART0_IRQHandler           0x000001d7   Wk    1  Code  Hi 
    393  UART1_IRQHandler           0x000001d7   Wk    1  Code  Hi 
    394  __user_initial_stackheap   0x000001d9   Gb    1  Code  Hi 
    395  fputc                      0x000001fd   Gb    1  Code  Hi   0x10
    396  ferror                     0x0000020d   Gb    1  Code  Hi   0x6
    397  _ttywrch                   0x00000213   Gb    1  Code  Hi   0xc
    398  _sys_exit                  0x0000021f   Gb    1  Code  Hi   0x4
    399  SystemInit                 0x00000229   Gb    1  Code  Hi   0x2
    400  uartInit                   0x0000022d   Gb    1  Code  Hi   0x38
    401  uartSendByte               0x00000265   Gb    1  Code  Hi   0x26
    402  puts                       0x0000028b   Gb    1  Code  Hi   0x16
    403  __I$use$semihosting        0x000002a9   Gb    1  Code  Hi 
    404  __use_no_semihosting_swi   0x000002a9   Gb    1  Code  Hi   0x2
    405  __2printf                  0x000002ad   Gb    1  Code  Hi   0x16
    406  __2sprintf                 0x000002c9   Gb    1  Code  Hi   0x24
    407  __use_two_region_memory    0x000002f1   Gb    1  Code  Hi   0x2
    408  __rt_heap_escrow$2region   0x000002f3   Gb    1  Code  De   0x2
    409  __rt_heap_expand$2region   0x000002f5   Gb    1  Code  De   0x2
    410  __I$use$fp                 0x000002f7   Gb    1  Code  Hi 
    411  main                       0x00000301   Gb    1  Code  Hi   0x176
    412  _printf_pre_padding        0x00000609   Gb    1  Code  Hi   0x2a
    413  _printf_post_padding       0x00000633   Gb    1  Code  De   0x22
    414  _printf_str                0x00000655   Gb    1  Code  Hi   0x52
    415  _printf_int_dec            0x000006a9   Gb    1  Code  Hi   0x5a
    416  _printf_longlong_hex       0x00000715   Gb    1  Code  Hi   0x50
    417  _printf_int_hex            0x00000765   Gb    1  Code  De   0x1a
    418  _printf_hex_ptr            0x0000077f   Gb    1  Code  De   0x14
    419  __printf                   0x00000799   Gb    1  Code  De   0x110
    420  strcpy                     0x000008a9   Gb    1  Code  Hi   0x46
    421  __aeabi_uidiv              0x000008f5   Gb    1  Code  De 
    422  __aeabi_uidivmod           0x000008f5   Gb    1  Code  De   0x14
    423  __aeabi_idiv               0x00000909   Gb    1  Code  De 
    424  __aeabi_idivmod            0x00000909   Gb    1  Code  Hi   0x146
    425  __aeabi_i2d_normalise      0x00000a4f   Gb    1  Code  De   0x42
    426  __aeabi_i2d                0x00000a91   Gb    1  Code  Hi   0x10
    427  _dflt                      0x00000a91   Gb    1  Code  De 
    428  __aeabi_ui2d               0x00000aa1   Gb    1  Code  De   0x6
    429  _dfltu                     0x00000aa1   Gb    1  Code  De 
    430  __aeabi_f2d                0x00000aa9   Gb    1  Code  Hi 
    431  _f2d                       0x00000aa9   Gb    1  Code  De   0x4a
    432  __aeabi_i2f_normalise      0x00000af9   Gb    1  Code  De   0x48
    433  __aeabi_i2f                0x00000b41   Gb    1  Code  Hi   0x10
    434  _fflt                      0x00000b41   Gb    1  Code  De 
    435  __aeabi_ui2f               0x00000b51   Gb    1  Code  De   0x6
    436  _ffltu                     0x00000b51   Gb    1  Code  De 
    437  _printf_int_common         0x00000b57   Gb    1  Code  De   0xac
    438  __lib_sel_fp_printf        0x00000c05   Gb    1  Code  Hi   0x2
    439  _printf_fp_dec_real        0x00000d9d   Gb    1  Code  De   0x25a
    440  _printf_char_common        0x0000100f   Gb    1  Code  De   0x20
    441  _sputc                     0x00001035   Gb    1  Code  De   0xa
    442  _printf_cs_common          0x0000103f   Gb    1  Code  Hi   0x16
    443  _printf_char               0x00001055   Gb    1  Code  De   0x10
    444  _printf_string             0x00001065   Gb    1  Code  De   0x8
    445  _printf_char_file          0x0000106d   Gb    1  Code  De   0x22
    446  __rt_udiv10                0x00001095   Gb    1  Code  De   0x28
    447  __rt_locale                0x000010bd   Gb    1  Code  De   0x8
    448  _ll_udiv10                 0x000010c5   Gb    1  Code  De   0x7a
    449  _printf_fp_infnan          0x00001141   Gb    1  Code  De   0x74
    450  _btod_etento               0x000011c5   Gb    1  Code  De   0xc8
    451  _btod_d2e                  0x00001291   Gb    1  Code  De   0x40
    452  _btod_emul                 0x00001685   Gb    1  Code  De   0x18
    453  _btod_emuld                0x0000169d   Gb    1  Code  De   0x4c
    454  _btod_ediv                 0x000016e9   Gb    1  Code  De   0x16
    455  _btod_edivd                0x000016ff   Gb    1  Code  De   0x4c
    456  __user_libspace            0x00001759   Wk    1  Code  De   0x8
    457  __user_perproc_libspace    0x00001759   Wk    1  Code  De 
    458  __user_perthread_libspace  0x00001759   Wk    1  Code  De 
    459  __user_setup_stackheap     0x00001761   Gb    1  Code  De   0x3e
    460  exit                       0x0000179f   Gb    1  Code  De   0xc
    461  strcmp                     0x000017ad   Gb    1  Code  De   0x78
    462  __ARM_common_ll_muluu      0x00001829   Gb    1  Code  De   0x30
    463  __ARM_fpclassify           0x00001859   Gb    1  Code  De   0x26
    464  _is_digit                  0x00001885   Gb    1  Code  De   0xe
    465  _get_lc_numeric            0x00001895   Gb    1  Code  Hi   0x2c
    466  _printf_fp_dec             0x000018c1   Gb    1  Code  Hi   0x10
    467  Region$$Table$$Base        0x0000198c   Gb    1   --   Hi 
    468  Region$$Table$$Limit       0x000019ac   Gb    1   --   Hi 
    469  __stdout                   0x20000000   Gb    2  Data  Hi   0x4
    470  __libspace_start           0x20000004   Gb    3  Data  De   0x60
    471  __temporary_stack_top$libspace
                                    0x20000064   Gb    3  Data  De 


** Section #12 '.strtab' (SHT_STRTAB)
    Size   : 6040 bytes


** Section #13 '.note' (SHT_NOTE)
    Size   : 28 bytes (alignment 4)


** Section #14 '.comment' (SHT_PROGBITS)
    Size   : 2832 bytes


** Section #15 '.shstrtab' (SHT_STRTAB)
    Size   : 156 bytes


